
asvm14150.elf:     file format elf32-littlenios2
asvm14150.elf
architecture: nios2, flags 0x00000112:
EXEC_P, HAS_SYMS, D_PAGED
start address 0x000001bc

Program Header:
    LOAD off    0x00001000 vaddr 0x00000000 paddr 0x00000000 align 2**12
         filesz 0x00000020 memsz 0x00000020 flags r-x
    LOAD off    0x00001020 vaddr 0x00000020 paddr 0x00000020 align 2**12
         filesz 0x00050b10 memsz 0x00050b10 flags r-x
    LOAD off    0x00051b30 vaddr 0x00050b30 paddr 0x00052c98 align 2**12
         filesz 0x00002168 memsz 0x00002168 flags rw-
    LOAD off    0x00053e00 vaddr 0x00054e00 paddr 0x00054e00 align 2**12
         filesz 0x00000000 memsz 0x0005aa8c flags rw-
    LOAD off    0x00054800 vaddr 0x0b40b800 paddr 0x0b40b800 align 2**12
         filesz 0x000000e0 memsz 0x000000e0 flags rw-

Sections:
Idx Name          Size      VMA       LMA       File off  Algn
  0 .entry        00000020  00000000  00000000  00001000  2**5
                  CONTENTS, ALLOC, LOAD, READONLY, CODE
  1 .exceptions   0000019c  00000020  00000020  00001020  2**2
                  CONTENTS, ALLOC, LOAD, READONLY, CODE
  2 desc          000000e0  0b40b800  0b40b800  00054800  2**0
                  CONTENTS, ALLOC, LOAD, DATA
  3 .text         0004ad18  000001bc  000001bc  000011bc  2**2
                  CONTENTS, ALLOC, LOAD, READONLY, CODE
  4 .rodata       00005c5c  0004aed4  0004aed4  0004bed4  2**2
                  CONTENTS, ALLOC, LOAD, READONLY, DATA
  5 .rwdata       00002168  00050b30  00052c98  00051b30  2**2
                  CONTENTS, ALLOC, LOAD, DATA, SMALL_DATA
  6 .bss          0005aa8c  00054e00  00054e00  00053e00  2**2
                  ALLOC, SMALL_DATA
  7 .comment      00000026  00000000  00000000  000548e0  2**0
                  CONTENTS, READONLY
  8 .debug_aranges 00001b38  00000000  00000000  00054908  2**3
                  CONTENTS, READONLY, DEBUGGING
  9 .debug_pubnames 00005b68  00000000  00000000  00056440  2**0
                  CONTENTS, READONLY, DEBUGGING
 10 .debug_info   00082d8f  00000000  00000000  0005bfa8  2**0
                  CONTENTS, READONLY, DEBUGGING
 11 .debug_abbrev 00012101  00000000  00000000  000ded37  2**0
                  CONTENTS, READONLY, DEBUGGING
 12 .debug_line   0004394e  00000000  00000000  000f0e38  2**0
                  CONTENTS, READONLY, DEBUGGING
 13 .debug_frame  000069e0  00000000  00000000  00134788  2**2
                  CONTENTS, READONLY, DEBUGGING
 14 .debug_str    0000396e  00000000  00000000  0013b168  2**0
                  CONTENTS, READONLY, DEBUGGING
 15 .debug_loc    000141f5  00000000  00000000  0013ead6  2**0
                  CONTENTS, READONLY, DEBUGGING
 16 .debug_alt_sim_info 00000060  00000000  00000000  00152ccc  2**2
                  CONTENTS, READONLY, DEBUGGING
 17 .debug_ranges 000009a8  00000000  00000000  00152d30  2**3
                  CONTENTS, READONLY, DEBUGGING
 18 .thread_model 00000006  00000000  00000000  0015e6ef  2**0
                  CONTENTS, READONLY
 19 .cpu          00000003  00000000  00000000  0015e6f5  2**0
                  CONTENTS, READONLY
 20 .simulation_enabled 00000001  00000000  00000000  0015e6f8  2**0
                  CONTENTS, READONLY
 21 .sysid_hash   00000004  00000000  00000000  0015e6f9  2**0
                  CONTENTS, READONLY
 22 .sysid_base   00000004  00000000  00000000  0015e6fd  2**0
                  CONTENTS, READONLY
 23 .sysid_time   00000004  00000000  00000000  0015e701  2**0
                  CONTENTS, READONLY
 24 .stderr_dev   00000009  00000000  00000000  0015e705  2**0
                  CONTENTS, READONLY
 25 .stdin_dev    00000009  00000000  00000000  0015e70e  2**0
                  CONTENTS, READONLY
 26 .stdout_dev   00000009  00000000  00000000  0015e717  2**0
                  CONTENTS, READONLY
 27 .sopc_system_name 0000000c  00000000  00000000  0015e720  2**0
                  CONTENTS, READONLY
 28 .quartus_project_dir 0000000c  00000000  00000000  0015e72c  2**0
                  CONTENTS, READONLY
 29 .jdi          00005397  00000000  00000000  0015e738  2**0
                  CONTENTS, READONLY
SYMBOL TABLE:
00000000 l    d  .entry	00000000 .entry
00000020 l    d  .exceptions	00000000 .exceptions
0b40b800 l    d  desc	00000000 desc
000001bc l    d  .text	00000000 .text
0004aed4 l    d  .rodata	00000000 .rodata
00050b30 l    d  .rwdata	00000000 .rwdata
00054e00 l    d  .bss	00000000 .bss
00000000 l    d  .comment	00000000 .comment
00000000 l    d  .debug_aranges	00000000 .debug_aranges
00000000 l    d  .debug_pubnames	00000000 .debug_pubnames
00000000 l    d  .debug_info	00000000 .debug_info
00000000 l    d  .debug_abbrev	00000000 .debug_abbrev
00000000 l    d  .debug_line	00000000 .debug_line
00000000 l    d  .debug_frame	00000000 .debug_frame
00000000 l    d  .debug_str	00000000 .debug_str
00000000 l    d  .debug_loc	00000000 .debug_loc
00000000 l    d  .debug_alt_sim_info	00000000 .debug_alt_sim_info
00000000 l    d  .debug_ranges	00000000 .debug_ranges
00000204 l       .text	00000000 alt_after_alt_main
00000000 l    df *ABS*	00000000 alt_irq_handler.c
00000000 l    df *ABS*	00000000 adc.c
0005502c l     O .bss	00000400 SenderTaskStack
00000000 l    df *ABS*	00000000 hack_tcp.c
00000000 l    df *ABS*	00000000 alt_error_handler.c
00000000 l    df *ABS*	00000000 iniche_init.c
00000000 l    df *ABS*	00000000 led.c
00000000 l    df *ABS*	00000000 network_utilities.c
00000000 l    df *ABS*	00000000 simple_socket_server.c
00000000 l    df *ABS*	00000000 tse_my_system.c
00000000 l    df *ABS*	00000000 dp-bit.c
00000000 l    df *ABS*	00000000 dp-bit.c
00000000 l    df *ABS*	00000000 dp-bit.c
00000000 l    df *ABS*	00000000 dp-bit.c
00000000 l    df *ABS*	00000000 dp-bit.c
00000000 l    df *ABS*	00000000 lib2-divmod.c
00002b50 l     F .text	0000007c udivmodsi4
00000000 l    df *ABS*	00000000 libgcc2.c
00000000 l    df *ABS*	00000000 libgcc2.c
00000000 l    df *ABS*	00000000 dp-bit.c
00000000 l    df *ABS*	00000000 dp-bit.c
00000000 l    df *ABS*	00000000 libgcc2.c
00000000 l    df *ABS*	00000000 fprintf.c
00000000 l    df *ABS*	00000000 fwrite.c
00000000 l    df *ABS*	00000000 impure.c
00050c68 l     O .rwdata	00000400 impure_data
00000000 l    df *ABS*	00000000 memset.c
00000000 l    df *ABS*	00000000 perror.c
00000000 l    df *ABS*	00000000 printf.c
00000000 l    df *ABS*	00000000 puts.c
00000000 l    df *ABS*	00000000 strerror.c
00000000 l    df *ABS*	00000000 strlen.c
00000000 l    df *ABS*	00000000 u_strerr.c
00000000 l    df *ABS*	00000000 vfprintf.c
00003c70 l     F .text	00000058 __sprint_r
0004c52e l     O .rodata	00000010 blanks.3452
0004c51e l     O .rodata	00000010 zeroes.3453
00000000 l    df *ABS*	00000000 wsetup.c
00000000 l    df *ABS*	00000000 dtoa.c
00005cd4 l     F .text	00000218 quorem
00000000 l    df *ABS*	00000000 fflush.c
00000000 l    df *ABS*	00000000 findfp.c
000076d0 l     F .text	00000058 std
000077dc l     F .text	00000008 __fp_lock
000077e4 l     F .text	00000008 __fp_unlock
00000000 l    df *ABS*	00000000 fputc.c
00000000 l    df *ABS*	00000000 fputs.c
00000000 l    df *ABS*	00000000 mallocr.c
00000000 l    df *ABS*	00000000 fvwrite.c
00000000 l    df *ABS*	00000000 fwalk.c
00000000 l    df *ABS*	00000000 locale.c
00052b4c l     O .rwdata	00000004 charset
0004c560 l     O .rodata	00000030 lconv
00000000 l    df *ABS*	00000000 makebuf.c
00000000 l    df *ABS*	00000000 mallocr.c
00000000 l    df *ABS*	00000000 memchr.c
00000000 l    df *ABS*	00000000 memcpy.c
00000000 l    df *ABS*	00000000 memmove.c
00000000 l    df *ABS*	00000000 mprec.c
0004c6a8 l     O .rodata	0000000c p05.2458
00000000 l    df *ABS*	00000000 putc.c
00000000 l    df *ABS*	00000000 mallocr.c
00000000 l    df *ABS*	00000000 s_isinfd.c
00000000 l    df *ABS*	00000000 s_isnand.c
00000000 l    df *ABS*	00000000 sbrkr.c
00000000 l    df *ABS*	00000000 stdio.c
00000000 l    df *ABS*	00000000 strcmp.c
00000000 l    df *ABS*	00000000 wbuf.c
00000000 l    df *ABS*	00000000 writer.c
00000000 l    df *ABS*	00000000 mallocr.c
00000000 l    df *ABS*	00000000 closer.c
00000000 l    df *ABS*	00000000 fclose.c
00000000 l    df *ABS*	00000000 fstatr.c
00000000 l    df *ABS*	00000000 int_errno.c
00000000 l    df *ABS*	00000000 isattyr.c
00000000 l    df *ABS*	00000000 lseekr.c
00000000 l    df *ABS*	00000000 readr.c
00000000 l    df *ABS*	00000000 libgcc2.c
00000000 l    df *ABS*	00000000 libgcc2.c
00000000 l    df *ABS*	00000000 dp-bit.c
0000bd5c l     F .text	00000410 _fpadd_parts
00000000 l    df *ABS*	00000000 dp-bit.c
00000000 l    df *ABS*	00000000 dp-bit.c
00000000 l    df *ABS*	00000000 dp-bit.c
00000000 l    df *ABS*	00000000 dp-bit.c
00000000 l    df *ABS*	00000000 dp-bit.c
00000000 l    df *ABS*	00000000 dp-bit.c
00000000 l    df *ABS*	00000000 dp-bit.c
00000000 l    df *ABS*	00000000 alt_fstat.c
0000c77c l     F .text	00000060 alt_get_errno
00000000 l    df *ABS*	00000000 alt_isatty.c
0000c89c l     F .text	00000060 alt_get_errno
00000000 l    df *ABS*	00000000 alt_load.c
0000c97c l     F .text	0000006c alt_load_section
00000000 l    df *ABS*	00000000 alt_lseek.c
0000cad8 l     F .text	00000060 alt_get_errno
00000000 l    df *ABS*	00000000 alt_main.c
00000000 l    df *ABS*	00000000 alt_remap_cached.c
00000000 l    df *ABS*	00000000 alt_sbrk.c
00052b58 l     O .rwdata	00000004 heap_end
00000000 l    df *ABS*	00000000 alt_env_lock.c
00052b5c l     O .rwdata	00000004 lockid
00054e54 l     O .bss	00000004 locks
00000000 l    df *ABS*	00000000 alt_malloc_lock.c
00052b60 l     O .rwdata	00000004 lockid
00054e5c l     O .bss	00000004 locks
00000000 l    df *ABS*	00000000 os_core.c
0000e6cc l     F .text	00000044 OS_InitMisc
0000e710 l     F .text	0000006c OS_InitRdyList
0000e874 l     F .text	000000e0 OS_InitTCBList
0000e5f0 l     F .text	000000dc OS_InitEventList
0000e77c l     F .text	0000007c OS_InitTaskIdle
0000e7f8 l     F .text	0000007c OS_InitTaskStat
0000eae8 l     F .text	00000070 OS_SchedNew
00000000 l    df *ABS*	00000000 os_dbg.c
00000000 l    df *ABS*	00000000 os_flag.c
00010a08 l     F .text	00000110 OS_FlagTaskRdy
00010760 l     F .text	000001c4 OS_FlagBlock
00000000 l    df *ABS*	00000000 os_mem.c
00000000 l    df *ABS*	00000000 os_q.c
00000000 l    df *ABS*	00000000 os_sem.c
00000000 l    df *ABS*	00000000 os_task.c
00000000 l    df *ABS*	00000000 os_time.c
00000000 l    df *ABS*	00000000 alt_sys_init.c
0005147c l     O .rwdata	000000d8 cfi_flash
00051554 l     O .rwdata	0000106c jtag_uart
000525c0 l     O .rwdata	00000124 lcd
000526e4 l     O .rwdata	00000030 sgdma_f
00052714 l     O .rwdata	00000030 sgdma_rx
00052744 l     O .rwdata	00000030 sgdma_tx
00015558 l     F .text	00000038 alt_dev_reg
00000000 l    df *ABS*	00000000 altera_avalon_cfi_flash.c
0001562c l     F .text	00000038 alt_flash_device_register
00000000 l    df *ABS*	00000000 altera_avalon_cfi_flash_table.c
0001641c l     F .text	0000007c alt_read_16bit_query_entry
00000000 l    df *ABS*	00000000 altera_avalon_jtag_uart_fd.c
00000000 l    df *ABS*	00000000 altera_avalon_jtag_uart_init.c
00017520 l     F .text	000002c4 altera_avalon_jtag_uart_irq
000177e4 l     F .text	00000114 altera_avalon_jtag_uart_timeout
00000000 l    df *ABS*	00000000 altera_avalon_jtag_uart_ioctl.c
00000000 l    df *ABS*	00000000 altera_avalon_jtag_uart_read.c
00000000 l    df *ABS*	00000000 altera_avalon_jtag_uart_write.c
00000000 l    df *ABS*	00000000 altera_avalon_lcd_16207.c
00052bdc l     O .rwdata	00000004 colstart
00017ffc l     F .text	000000b8 lcd_write_command
000180b4 l     F .text	000000d4 lcd_write_data
00018188 l     F .text	000000c4 lcd_clear_screen
0001824c l     F .text	000001ec lcd_repaint_screen
00018438 l     F .text	000000c8 lcd_scroll_up
00018500 l     F .text	000002d0 lcd_handle_escape
00018d08 l     F .text	000000cc alt_lcd_16207_timeout
00000000 l    df *ABS*	00000000 altera_avalon_lcd_16207_fd.c
00000000 l    df *ABS*	00000000 altera_avalon_sgdma.c
00019660 l     F .text	00000060 alt_get_errno
00019c08 l     F .text	000000c0 alt_avalon_sgdma_irq
00000000 l    df *ABS*	00000000 altera_avalon_timer_sc.c
00019d74 l     F .text	00000070 alt_avalon_timer_sc_irq
00000000 l    df *ABS*	00000000 altera_avalon_tse.c
00054eb6 l     O .bss	00000001 tse_system_count.4487
00054eb7 l     O .bss	00000001 is_init.4851
00000000 l    df *ABS*	00000000 ins_tse_mac.c
00000000 l    df *ABS*	00000000 alt_iniche_close.c
00000000 l    df *ABS*	00000000 alt_iniche_dev.c
00000000 l    df *ABS*	00000000 alt_iniche_read.c
00000000 l    df *ABS*	00000000 alt_iniche_write.c
00000000 l    df *ABS*	00000000 ipnet.c
00000000 l    df *ABS*	00000000 ipstart.c
00054ecc l     O .bss	00000004 nclosers
00055454 l     O .bss	0000003c closers
00000000 l    df *ABS*	00000000 igmp_cmn.c
00000000 l    df *ABS*	00000000 bsdsock.c
00000000 l    df *ABS*	00000000 cksum.c
00052bf8 l     O .rwdata	00000004 cksum_select
00000000 l    df *ABS*	00000000 in_utils.c
00055490 l     O .bss	00000018 tistring
00000000 l    df *ABS*	00000000 netmain.c
00000000 l    df *ABS*	00000000 tk_crnos.c
00000000 l    df *ABS*	00000000 dhcpclnt.c
00026fd4 l     F .text	000000cc dh_getlong
00000000 l    df *ABS*	00000000 dhcputil.c
00000000 l    df *ABS*	00000000 pktalloc.c
00000000 l    df *ABS*	00000000 q.c
00000000 l    df *ABS*	00000000 udp_open.c
00028d00 l       .text	00000000 done
00028b90 l       .text	00000000 asm1
00028cbc l       .text	00000000 loop0
00028bb8 l       .text	00000000 loop
00028cd8 l       .text	00000000 fold
00000000 l    df *ABS*	00000000 brdutils.c
00054f2c l     O .bss	00000004 kbd_init.3746
00054f38 l     O .bss	00000004 cpu_statusreg
00000000 l    df *ABS*	00000000 osportco.c
00000000 l    df *ABS*	00000000 targnios.c
00000000 l    df *ABS*	00000000 nptcp.c
00054f6c l     O .bss	00000004 in_tcptick
00000000 l    df *ABS*	00000000 rawsock.c
00000000 l    df *ABS*	00000000 sockcall.c
0002d404 l     F .text	00000098 sockargs
0002c640 l     F .text	000001fc t_getname
00000000 l    df *ABS*	00000000 socket.c
00000000 l    df *ABS*	00000000 socket2.c
00000000 l    df *ABS*	00000000 soselect.c
00000000 l    df *ABS*	00000000 tcp_in.c
00000000 l    df *ABS*	00000000 tcp_out.c
00035884 l     F .text	000000e8 bld_options
00000000 l    df *ABS*	00000000 tcp_subr.c
00000000 l    df *ABS*	00000000 tcp_timr.c
00000000 l    df *ABS*	00000000 tcp_usr.c
00000000 l    df *ABS*	00000000 tcp_zio.c
00000000 l    df *ABS*	00000000 tcpport.c
00000000 l    df *ABS*	00000000 udpsock.c
00000000 l    df *ABS*	00000000 alt_alarm_start.c
00000000 l    df *ABS*	00000000 alt_close.c
000389bc l     F .text	00000060 alt_get_errno
00000000 l    df *ABS*	00000000 alt_dcache_flush.c
00000000 l    df *ABS*	00000000 alt_dcache_flush_all.c
00000000 l    df *ABS*	00000000 alt_dev.c
00038ad8 l     F .text	0000002c alt_dev_null_write
00000000 l    df *ABS*	00000000 alt_dev_llist_insert.c
00038bb8 l     F .text	00000060 alt_get_errno
00000000 l    df *ABS*	00000000 alt_do_ctors.c
00000000 l    df *ABS*	00000000 alt_do_dtors.c
00000000 l    df *ABS*	00000000 alt_errno.c
00000000 l    df *ABS*	00000000 alt_find_dev.c
00000000 l    df *ABS*	00000000 alt_flash_dev.c
00000000 l    df *ABS*	00000000 alt_icache_flush_all.c
00000000 l    df *ABS*	00000000 alt_iic.c
00000000 l    df *ABS*	00000000 alt_iic_isr_register.c
00000000 l    df *ABS*	00000000 alt_io_redirect.c
00039140 l     F .text	000000c4 alt_open_fd
00000000 l    df *ABS*	00000000 alt_irq_vars.c
00000000 l    df *ABS*	00000000 alt_open.c
0003927c l     F .text	000000dc alt_file_locked
000394e0 l     F .text	00000060 alt_get_errno
00000000 l    df *ABS*	00000000 alt_read.c
00039660 l     F .text	00000060 alt_get_errno
00000000 l    df *ABS*	00000000 alt_release_fd.c
00000000 l    df *ABS*	00000000 alt_remap_uncached.c
00000000 l    df *ABS*	00000000 alt_tick.c
00000000 l    df *ABS*	00000000 alt_uncached_malloc.c
00000000 l    df *ABS*	00000000 alt_usleep.c
00000000 l    df *ABS*	00000000 alt_write.c
00039ba4 l     F .text	00000060 alt_get_errno
00000000 l    df *ABS*	00000000 altera_nios2_irq.c
00000040 l       *ABS*	00000000 OSCtxSw_SWITCH_PC
00000000 l    df *ABS*	00000000 os_cpu_c.c
00000014 l       *ABS*	00000000 OSTCBNext_OFFSET
00000032 l       *ABS*	00000000 OSTCBPrio_OFFSET
00000000 l       *ABS*	00000000 OSTCBStkPtr_OFFSET
00000000 l    df *ABS*	00000000 altera_avalon_cfi_flash_amd.c
0003a4bc l     F .text	000000bc alt_write_word_amd
0003a398 l     F .text	00000124 alt_wait_for_command_to_complete_amd
00000000 l    df *ABS*	00000000 altera_avalon_cfi_flash_intel.c
0003a770 l     F .text	0000018c alt_unlock_block_intel
0003a8fc l     F .text	000000dc alt_write_word_intel
00000000 l    df *ABS*	00000000 allports.c
00054fa4 l     O .bss	00000004 inside_pktdemux
00000000 l    df *ABS*	00000000 timeouts.c
0003ae70 l     F .text	00000198 check_interval_timers
00054fb0 l     O .bss	00000004 numtimers
00000000 l    df *ABS*	00000000 tk_misc.c
00000000 l    df *ABS*	00000000 alt_iniche_fcntl.c
00000000 l    df *ABS*	00000000 et_arp.c
00054fb4 l     O .bss	00000004 arp_timer
00054fcc l     O .bss	00000004 cachetime
00000000 l    df *ABS*	00000000 iface.c
00000000 l    df *ABS*	00000000 ip.c
00052c7c l     O .rwdata	00000004 uid
00000000 l    df *ABS*	00000000 ip_reasm.c
00000000 l    df *ABS*	00000000 ipdemux.c
00000000 l    df *ABS*	00000000 ipmc.c
00000000 l    df *ABS*	00000000 ipport.c
00000000 l    df *ABS*	00000000 ipraw.c
00000000 l    df *ABS*	00000000 iproute.c
00000000 l    df *ABS*	00000000 udp.c
00054ffc l     O .bss	00000002 usocket
00000000 l    df *ABS*	00000000 igmp.c
00000000 l    df *ABS*	00000000 igmp2.c
00000000 l    df *ABS*	00000000 ipopt.c
00000000 l    df *ABS*	00000000 u_mctest.c
00052c84 l     O .rwdata	00000004 iCounter.4517
00000000 l    df *ABS*	00000000 dhcsetup.c
00000000 l    df *ABS*	00000000 memdev.c
00000000 l    df *ABS*	00000000 parseip.c
000554a8 l     O .bss	0000001e nearBuf.4191
00000000 l    df *ABS*	00000000 tcpcksum.c
00000000 l    df *ABS*	00000000 in_pcb.c
00000000 l    df *ABS*	00000000 vfsfiles.c
00000000 l    df *ABS*	00000000 vfsport.c
00000000 l    df *ABS*	00000000 alt_busy_sleep.c
00000000 l    df *ABS*	00000000 alt_fcntl.c
00048980 l     F .text	00000060 alt_get_errno
00000000 l    df *ABS*	00000000 alt_find_file.c
00000000 l    df *ABS*	00000000 alt_get_fd.c
00000000 l    df *ABS*	00000000 alt_icache_flush.c
00000000 l    df *ABS*	00000000 icmp.c
00052b24 l     O .rwdata	00000018 dsts
00000000 l    df *ABS*	00000000 atexit.c
00000000 l    df *ABS*	00000000 atoi.c
00000000 l    df *ABS*	00000000 calloc.c
00000000 l    df *ABS*	00000000 ctype_.c
000509ad l     O .rodata	00000180 _ctype_b
00000000 l    df *ABS*	00000000 exit.c
00000000 l    df *ABS*	00000000 getc.c
00000000 l    df *ABS*	00000000 malloc.c
00000000 l    df *ABS*	00000000 memcmp.c
00000000 l    df *ABS*	00000000 rget.c
00000000 l    df *ABS*	00000000 sprintf.c
00000000 l    df *ABS*	00000000 strchr.c
00000000 l    df *ABS*	00000000 strcpy.c
00000000 l    df *ABS*	00000000 strncmp.c
00000000 l    df *ABS*	00000000 strncpy.c
00000000 l    df *ABS*	00000000 strtol.c
00000000 l    df *ABS*	00000000 vprintf.c
00000000 l    df *ABS*	00000000 vsprintf.c
00000000 l    df *ABS*	00000000 __atexit.c
00000000 l    df *ABS*	00000000 __call_atexit.c
0004aa64 l     F .text	00000004 register_fini
00000000 l    df *ABS*	00000000 refill.c
0004addc l     F .text	0000001c lflush
00000000 l    df *ABS*	00000000 alt_exit.c
0004adf8 l     F .text	00000040 alt_sim_halt
000014b0 g     F .text	000000f0 hack_tse_mac_sTxWrite
000af1f8 g     O .bss	00000014 soq
00009540 g     F .text	00000094 _mprec_log10
0001b148 g     F .text	000000e0 alt_tse_get_mac_info
00052bae g     O .rwdata	00000002 OSTaskNameSize
0000962c g     F .text	00000088 __any_on
0000b070 g     F .text	00000070 _isatty_r
0004c680 g     O .rodata	00000028 __mprec_tinytens
0003cd58 g     F .text	00000780 ip_write_internal
0000cb38 g     F .text	000000c8 alt_main
0004a3e8 g     F .text	0000008c strcpy
00028454 g     F .text	000000ac pk_free
000034cc g     F .text	000000a0 _puts_r
00015edc g     F .text	00000048 alt_read_query_entry_32bit
000af3a4 g     O .bss	00000100 alt_irq
000529c4 g     O .rwdata	00000009 rtp_priority
0000b0e0 g     F .text	00000078 _lseek_r
00049c08 g     F .text	00000334 icmp_timex
00029de0 g     F .text	00000044 m_freem
00048198 g     F .text	00000048 vgetc
00028e7c g     F .text	0000001c clock_c
00054f84 g     O .bss	00000004 tcp_optionbuf
0003c820 g     F .text	00000084 if_getbynum
000112fc g     F .text	000000d0 OS_MemInit
00054f24 g     O .bss	00000004 dsc_rlyerrs
00054f14 g     O .bss	00000004 dsc_releases
00015664 g     F .text	000002c0 alt_flash_cfi_write
00024b7c g     F .text	00000074 TK_OSTaskQuery
00028b70 g       .text	00000000 asm_cksum
00052c98 g       *ABS*	00000000 __flash_rwdata_start
0001f044 g     F .text	00000100 marvell_cfg_rgmii
0001523c g     F .text	00000064 OSTimeSet
00048078 g     F .text	00000120 vgetc_locked
000296bc g     F .text	00000020 post_task_setup
00040750 g     F .text	00000354 ipr_stats
000372bc g     F .text	00000134 tcp_attach
00052c08 g     O .rwdata	00000004 reqlist_len
0002b28c g     F .text	00000084 tcp_tick
00023dc8 g     F .text	00000074 print_ipad
0b40b800 g       *ABS*	00000000 __alt_mem_descf
00024a78 g     F .text	00000104 tcp_wakeup
0000c260 g     F .text	00000088 __eqdf2
00054ed0 g     O .bss	00000004 igmp_timers_are_running
00001af0 g     F .text	000000cc led_bit_toggle
00034110 g     F .text	0000012c tcp_pulloutofband
0001c6c4 g     F .text	000001f0 alt_tse_phy_print_profile
0000d248 g     F .text	000006b4 OSEventPendMulti
000af88c g       *ABS*	00000000 __alt_heap_start
0003a004 g     F .text	00000020 OSTaskCreateHook
00027c40 g     F .text	00000074 dhc_ifacedone
0001edb4 g     F .text	000000a8 marvell_phy_cfg
00040af8 g     F .text	00000400 ip_rcv
00047dc8 g     F .text	0000017c vfseek
0002fe3c g     F .text	00000120 soqremque
00042948 g     F .text	00000858 udpdemux
00020838 g     F .text	00000104 tse_mac_close
00003454 g     F .text	00000044 printf
00054fd0 g     O .bss	00000004 rt_mib
00052b86 g     O .rwdata	00000002 OSMboxEn
00027b50 g     F .text	00000060 dhc_state_init
0004a90c g     F .text	00000024 vsprintf
000190cc g     F .text	00000124 alt_avalon_sgdma_do_sync_transfer
0000d950 g     F .text	0000007c OSIntEnter
0b200000 g       *ABS*	00000000 __alt_mem_sram
0000a9f0 g     F .text	00000068 __sseek
00007738 g     F .text	000000a4 __sinit
00041a9c g     F .text	00000118 in_delmulti
0000abf0 g     F .text	00000130 __swbuf_r
00054fe8 g     O .bss	00000004 so_evtmap_create
00052b96 g     O .rwdata	00000002 OSQEn
00046348 g     F .text	00000094 in_pcballoc
00052c24 g     O .rwdata	00000002 socket_defaults
0000855c g     F .text	00000084 _setlocale_r
0003b64c g     F .text	00000498 send_arp
00007838 g     F .text	00000068 __sfmoreglue
00046e34 g     F .text	00000368 vfopen_locked
00054e20 g     O .bss	00000004 SSSLEDCommandQ
0000cf04 g     F .text	000000d0 __malloc_unlock
0003a060 g     F .text	0000001c OSTaskStatHook
0003ad54 g     F .text	00000058 prep_modules
000232e8 g     F .text	000001d0 bsd_i_sockoptlen
00054e64 g     O .bss	00000001 OSLockNesting
00052c00 g     O .rwdata	00000004 xids
00003580 g     F .text	00000674 strerror
0001b3ac g     F .text	00000e18 getPHYSpeed
00047394 g     F .text	00000040 vfclose
000af298 g     O .bss	0000002c tcb
00052bd4 g     O .rwdata	00000002 OSDataSize
00054e65 g     O .bss	00000001 OSRunning
0000cc00 g     F .text	00000038 alt_remap_cached
0003c554 g     F .text	000002cc grat_arp
00001e60 g     F .text	00000060 get_ip_addr
00045d60 g     F .text	000000ac inet_pton
0003c984 g     F .text	0000009c reg_type
000aed9c g     O .bss	000000f0 dhc_states
000220f0 g     F .text	0000019c igmp_fasttimo
00047558 g     F .text	0000005c vunlink_flag_open_files
000278f8 g     F .text	00000088 dhc_halt
00019820 g     F .text	000003e8 alt_avalon_sgdma_construct_descriptor_burst
000378c4 g     F .text	0000013c tcp_data_upcall
00054f08 g     O .bss	00000004 dsc_acks
000af2c4 g     O .bss	000000e0 tcpstat
00040000 g     F .text	0000035c ip_reasm_copy_queued_fragments_into_reassy_buffer
0002a370 g     F .text	000000a8 dtom
00035788 g     F .text	000000fc tcp_setpersist
0002ca18 g     F .text	000001a4 t_getsockopt
00009054 g     F .text	000000e0 memmove
00054f18 g     O .bss	00000004 dsc_naks
0002a814 g     F .text	000005f8 ip_output
0003a0a4 g     F .text	0000001c OSInitHookBegin
00049f3c g     F .text	00000054 icmp_du
00052bfc g     O .rwdata	00000004 num_net_tasks
0005500c g     O .bss	00000004 vfiles
00052bcc g     O .rwdata	00000002 OSTmrSize
0004545c g     F .text	00000104 dhc_main_ipset
00007828 g     F .text	00000010 _cleanup
0003f0f8 g     F .text	000002e0 ip_reasm_process_first_fragment
000096b4 g     F .text	000000bc _Balloc
00054e68 g     O .bss	00000004 OSIdleCtr
00054e24 g     O .bss	00000004 SSSLEDLightshowSem
0001e078 g     F .text	00000194 alt_tse_phy_set_adv_1000
00052be8 g     O .rwdata	00000001 max_mac_system
00044374 g     F .text	000005f0 ip_setmoptions
000375a4 g     F .text	00000250 tcp_xout
0001a3ac g     F .text	00000a14 alt_tse_system_add_sys
0000c370 g     F .text	00000088 __gtdf2
00045820 g     F .text	0000002c md_fseek
00039cd0 g       .text	00000000 OSStartTsk
00000000  w      *UND*	00000000 __errno
0000ee1c g     F .text	000002e0 OS_TCBInit
0003f3d8 g     F .text	000000a0 ip_reassm
00027980 g     F .text	000001d0 dhc_reclaim
00016068 g     F .text	00000048 alt_write_flash_command_32bit_device_16bit_mode
000af684 g     O .bss	00000010 udp_mib
00000000 g     F .entry	0000001c __reset
0002d250 g     F .text	000000e4 t_shutdown
0002ccac g     F .text	00000150 t_recvfrom
00052bd2 g     O .rwdata	00000002 OSTmrWheelTblSize
00044b58 g     F .text	0000067c u_mctest_run
00019334 g     F .text	00000070 alt_avalon_sgdma_construct_stream_to_mem_desc_burst
00041c24 g     F .text	00000094 prep_ifaces
00000020 g       *ABS*	00000000 __flash_exceptions_start
00054eec g     O .bss	00000001 to_netmain
000280c0 g     F .text	000000dc pk_alloc
00052b72 g     O .rwdata	00000002 OSEventSize
00000e58 g     F .text	000002ec alt_SSSErrorHandler
00054e6c g     O .bss	00000001 OSPrioHighRdy
0000affc g     F .text	00000074 _fstat_r
00050b48 g     O .rwdata	00000120 tse_mac_device
000247f0 g     F .text	0000004c tk_nettick
0003a024 g     F .text	00000020 OSTaskDelHook
00015b80 g     F .text	000002d8 alt_flash_program_block
00054e44 g     O .bss	00000004 errno
0004a220 g     F .text	00000014 __srget
000311b8 g     F .text	000000cc in_pcbnotify
00039cb0 g       .text	00000000 OSStartHighRdy
000aee8c g     O .bss	00000014 lilfreeq
0000059c g     F .text	00000624 alt_uCOSIIErrorHandler
00041ce0 g     F .text	00000028 evtmap_setup
00013a10 g     F .text	00000200 OSTaskCreateExt
00054ef0 g     O .bss	00000004 tcp_sleep_timeout
00030868 g     F .text	000001d0 sbdrop
00054fe4 g     O .bss	00000004 net_system_exit
000af694 g     O .bss	00000068 icmp_mib
00036304 g     F .text	00000078 tcp_getseq
000420f0 g     F .text	000000cc ip_raw_alloc
0001e8d0 g     F .text	000004e4 alt_tse_phy_set_common_speed
0001027c g     F .text	00000068 OSFlagPendGetFlagsRdy
00052bb2 g     O .rwdata	00000002 OSTaskStatStkSize
000ae870 g     O .bss	00000010 pmac_groups
0002601c g     F .text	00000b3c dhc_request
0002e4dc g     F .text	000007e4 soreceive
0000f288 g     F .text	00000334 OSFlagAccept
00011a34 g     F .text	000000c8 OSQFlush
000113cc g     F .text	00000154 OSQAccept
00054e4c g     O .bss	00000004 alt_argv
0005ab3c g       *ABS*	00000000 _gp
00040aa4 g     F .text	00000054 ip_reasm_send_icmp_timex
0003996c g     F .text	00000118 usleep
000473d4 g     F .text	00000048 vfflush
000af1a0 g     O .bss	00000040 resid_semaphore
00023c80 g     F .text	00000148 hexdump
0003efb0 g     F .text	000000a8 ip_reasm_incr_mem_useage
00029714 g     F .text	00000034 calloc2
000227a0 g     F .text	0000007c igmp_leavegroup
0001383c g     F .text	000001d4 OSTaskCreate
000132c8 g     F .text	00000574 OSTaskChangePrio
00054e60 g     O .bss	00000004 alt_heapsem
00036150 g     F .text	000000e8 tcp_close
0000f0fc g     F .text	0000018c OSDebugInit
00013c10 g     F .text	0000040c OSTaskDel
000485f4 g     F .text	0000006c vferror
00039908 g     F .text	00000064 alt_uncached_malloc
00019ea0 g     F .text	00000060 tse_mac_initTransInfo2
00043658 g     F .text	000000c0 udp_alloc
0005282c g     O .rwdata	00000180 alt_fd_list
00001974 g     F .text	00000088 SendUDP
000ab56c g     O .bss	00000370 OSFlagTbl
00054f70 g     O .bss	00000008 mbstat
0004a0a8 g     F .text	00000090 _getc_r
0004a010 g     F .text	00000098 getc
0000e3cc g     F .text	000000b8 OS_EventTaskRemove
00043f64 g     F .text	00000158 igmpv2_chk_set_timer
0002483c g     F .text	0000002c TK_OSTimeDly
00038ce0 g     F .text	00000094 alt_find_dev
00008fb4 g     F .text	000000a0 memcpy
0001a128 g     F .text	00000058 tse_mac_setMIImode
00054f20 g     O .bss	00000004 dsc_rebind
0003b250 g     F .text	00000080 task_stats
0002bd3c g     F .text	0000004c DOMAIN_CHECK
0002ae0c g     F .text	00000040 in_broadcast
00052b9c g     O .rwdata	00000002 OSRdyTblSize
0001c1c4 g     F .text	00000048 alt_tse_phy_rd_mdio_addr
00055008 g     O .bss	00000004 vfsystems
00043588 g     F .text	000000d0 udp_socket
00054ec0 g     O .bss	00000004 MaxMtu
00030dfc g     F .text	00000158 sock_selscan
0001f1c4 g     F .text	0000015c triple_speed_ethernet_init
0000781c g     F .text	0000000c _cleanup_r
000028c4 g     F .text	000000f8 __floatsidf
0003ed5c g     F .text	000000d0 ip_reasm_match_frag_with_ire
0002ffac g     F .text	00000050 socantrcvmore
00019f00 g     F .text	000000f0 tse_mac_sTxWrite
00003440 g     F .text	00000014 perror
00039204 g     F .text	00000078 alt_io_redirect
0000c480 g     F .text	00000088 __ltdf2
00054f4c g     O .bss	00000004 netq_intmask
00045cf0 g     F .text	00000070 hextoa
0004aed4 g       *ABS*	00000000 __DTOR_END__
0002d028 g     F .text	00000228 t_send
00001250 g     F .text	00000260 InitUDP
000388c0 g     F .text	000000fc alt_close
00054f78 g     O .bss	00000002 select_wait
0000356c g     F .text	00000014 puts
00024314 g     F .text	00000044 std_out
000ae890 g     O .bss	00000030 tse_iniche_dev_driver_data
000481e0 g     F .text	00000138 vfslookup_locked
0002dcc4 g     F .text	0000009c soaccept
0000cfd4 g     F .text	00000130 OSEventNameGet
00052b80 g     O .rwdata	00000002 OSFlagMax
00039c04 g     F .text	00000020 altera_nios2_irq_init
000af20c g     O .bss	0000003c tcpmib
0002d49c g     F .text	0000009c t_errno
00041d08 g     F .text	000000f0 ip_raw_open
00026ebc g     F .text	00000118 dhc_decline
00009490 g     F .text	000000b0 __ratio
0000d9cc g     F .text	00000100 OSIntExit
00052c80 g     O .rwdata	00000004 ipRoutes
00047500 g     F .text	00000058 vfeof
000366c0 g     F .text	0000005c tcp_canceltimers
000257e4 g     F .text	0000021c dhc_buildheader
00052bba g     O .rwdata	00000002 OSTCBSize
00019418 g     F .text	00000084 alt_avalon_sgdma_construct_mem_to_stream_desc_burst
00054e6d g     O .bss	00000001 OSPrioCur
00017a60 g     F .text	000002c0 altera_avalon_jtag_uart_read
0004a14c g     F .text	00000014 malloc
00055004 g     O .bss	00000004 inpcb_cachemiss
00003498 g     F .text	00000034 _printf_r
00045ef8 g     F .text	000000c4 inet46_addr
00055000 g     O .bss	00000004 inpcb_cachehits
00002c8c g     F .text	00000008 __udivsi3
000527ec g     O .rwdata	0000000b tcp_outflags
000ae8c0 g     O .bss	00000130 tse
0000c7dc g     F .text	000000c0 isatty
0001adc0 g     F .text	00000178 alt_tse_sys_enable_mdio_sharing
00052ba0 g     O .rwdata	00000002 OSStkWidth
0004c590 g     O .rodata	000000c8 __mprec_tens
00046c90 g     F .text	0000007c vf_alloc_and_link_vop
00052b94 g     O .rwdata	00000002 OSPtrSize
00054fd4 g     O .bss	00000004 ipr_curr_mem
00021d7c g     F .text	0000006c exit_hook
00054ed4 g     O .bss	00000004 igmp_cticks
0001b0bc g     F .text	0000008c alt_tse_get_mac_info_index
00054f60 g     O .bss	00000004 mheap_sem_ptr
000344a8 g     F .text	00000048 ip4_tcpmss
00008538 g     F .text	00000008 __locale_charset
00052b74 g     O .rwdata	00000002 OSEventTblSize
000af608 g     O .bss	00000014 netlist
0002ecc0 g     F .text	000000a8 soshutdown
00039c24 g       .text	00000000 OSCtxSw
0003ace4 g     F .text	0000004c packet_check
00026b58 g     F .text	00000280 dhc_setip
00048bf4 g     F .text	00000090 alt_icache_flush
000af248 g     O .bss	00000014 mbufq
0002dc74 g     F .text	00000050 soabort
00054e38 g     O .bss	00000004 __malloc_top_pad
00054e70 g     O .bss	00000004 OSTCBList
00028744 g     F .text	00000110 qdel
00000208 g     F .text	00000070 InitADC
0003ab5c g     F .text	0000014c station_state
00042258 g     F .text	00000184 rt_lookup
00054f90 g     O .bss	00000004 alt_fd_list_lock
00052b48 g     O .rwdata	00000004 __mb_cur_max
0002281c g     F .text	0000035c igmp_validate
00008540 g     F .text	0000000c _localeconv_r
00021a98 g     F .text	000002e4 ip_startup
0002c078 g     F .text	00000298 t_accept
0002fa2c g     F .text	0000008c soisdisconnecting
00009dac g     F .text	0000003c __i2b
00007f1c g     F .text	0000049c __sfvwrite_r
00019540 g     F .text	00000058 alt_avalon_sgdma_stop
00021450 g     F .text	000003d4 pktdemux
000ab8dc g     O .bss	00000c30 OSMemTbl
00054e74 g     O .bss	00000001 OSTickStepState
0001c260 g     F .text	00000128 alt_tse_phy_wr_mdio_reg
00028d34 g     F .text	000000ac kbhit
0002c83c g     F .text	000001dc t_setsockopt
0000a978 g     F .text	00000070 _sbrk_r
0003a578 g     F .text	00000084 alt_program_intel
000529ac g     O .rwdata	00000018 icmpdu_types
0001c8b4 g     F .text	0000070c alt_tse_mac_group_init
000475b4 g     F .text	00000220 vunlink
0001f578 g     F .text	00000ae8 tse_mac_init
00052b98 g     O .rwdata	00000002 OSQMax
00023ac0 g     F .text	000000b0 ccksum
00046d0c g     F .text	000000d8 vf_alloc_buffer
00054ff8 g     O .bss	00000004 cachedRoute
00052c0c g     O .rwdata	00000004 lilbufs
000ac50c g     O .bss	00000800 OSTaskStatStk
0004584c g     F .text	00000024 md_ftell
00023b70 g     F .text	00000068 cksum
00010ee4 g     F .text	0000010c OSMemNameGet
0002d850 g     F .text	00000130 sofree
00054ec8 g     O .bss	00000004 ifNumber
00052b78 g     O .rwdata	00000002 OSFlagEn
0000b158 g     F .text	00000078 _read_r
00052bbe g     O .rwdata	00000002 OSTimeTickHookEn
00038a1c g     F .text	00000078 alt_dcache_flush
00011f98 g     F .text	00000180 OSQPost
00010b18 g     F .text	000000ac OS_FlagUnlink
00051068 g     O .rwdata	0000000c __lc_ctype
00052c4c g     O .rwdata	00000004 alt_max_fd
00015e58 g     F .text	00000040 alt_read_query_entry_8bit
0000e9a8 g     F .text	0000006c OS_MemCopy
00052c14 g     O .rwdata	00000004 bigbufs
000373f0 g     F .text	000000d4 tcp_disconnect
000030c8 g     F .text	00000138 __unpack_d
0000ea14 g     F .text	000000d4 OS_Sched
0000aed8 g     F .text	00000110 _fclose_r
00010de0 g     F .text	00000104 OSMemGet
00014344 g     F .text	000001c4 OSTaskNameSet
0003a5fc g     F .text	00000174 alt_erase_block_intel
0000769c g     F .text	00000034 fflush
00054e1c g     O .bss	00000004 ext_net
00054e3c g     O .bss	00000004 __malloc_max_sbrked_mem
00054e78 g     O .bss	00000004 OSCtxSwCtr
000aed14 g     O .bss	00000064 igmpstats
0003a07c g     F .text	00000028 OSTimeTickHook
00054e00 g     O .bss	00000004 cpu_sr
00025f18 g     F .text	00000104 dhc_rx_offer
000234b8 g     F .text	00000120 bsd_getsockopt
00052b82 g     O .rwdata	00000002 OSFlagNameSize
000af66c g     O .bss	00000018 ire_stats
00001be4 g     F .text	000001e4 LEDManagementTask
00037abc g     F .text	000001b8 udp_soinput
00028694 g     F .text	000000b0 putq
0000e484 g     F .text	00000104 OS_EventTaskRemoveMulti
00054ee8 g     O .bss	00000004 iniche_net_ready
00001784 g     F .text	000001f0 hack_send
0000c1ec g     F .text	00000074 __adddf3
0000e278 g     F .text	00000154 OS_EventTaskWaitMulti
000485ac g     F .text	00000048 isvfile
0002ee68 g     F .text	000004d8 sosetopt
00024674 g     F .text	000000f4 netmain
000344f0 g     F .text	0000011c tcp_mss
00009370 g     F .text	00000120 __b2d
0004596c g     F .text	0000031c parse_ipad
00046c70 g     F .text	00000020 get_vfopen_error
00052b9a g     O .rwdata	00000002 OSQSize
0000b7ac g     F .text	000005b0 __umoddi3
0000c9e8 g     F .text	000000f0 lseek
0003adac g     F .text	000000c4 inet_timer
00012b74 g     F .text	0000027c OSSemPend
0001c44c g     F .text	00000278 alt_tse_phy_add_profile_default
0001db38 g     F .text	00000540 alt_tse_phy_get_cap
00052b44 g     O .rwdata	00000004 _global_impure_ptr
0b40b8a0 g     O desc	00000020 DescData
00023fac g     F .text	00000164 print_eth
0004719c g     F .text	00000050 vfopen
000a74f4 g     O .bss	00002000 UserTaskStk
00039540 g     F .text	00000120 alt_read
0000a314 g     F .text	000005f4 _realloc_r
00000bc0 g     F .text	00000298 alt_NetworkErrorHandler
00052b84 g     O .rwdata	00000002 OSLowestPrio
000af88c g       *ABS*	00000000 __bss_end
00039048 g     F .text	000000f8 alt_iic_isr_register
00001bbc g     F .text	00000028 UserTask
00018f90 g     F .text	0000013c alt_avalon_sgdma_do_async_transfer
00029cac g     F .text	00000134 m_free
0003a0f8 g     F .text	00000020 OSTCBInitHook
000207f8 g     F .text	00000040 tse_mac_stats
0002819c g     F .text	000002b8 pk_validate
00052bca g     O .rwdata	00000002 OSTmrCfgTicksPerSec
000397f8 g     F .text	00000110 alt_tick
000469ec g     F .text	0000025c in_pcblookup
00027d64 g     F .text	000000cc find_opt
0000b1d0 g     F .text	000005dc __udivdi3
00029b04 g     F .text	000001a8 m_getnbuf
00028520 g     F .text	000000ac dump_buf_estats
0001d9f4 g     F .text	00000144 alt_tse_phy_check_link
00054fc8 g     O .bss	00000004 arpRepsOut
00052b6c g     O .rwdata	00000002 OSEventEn
0004c658 g     O .rodata	00000028 __mprec_bigtens
0000a008 g     F .text	00000120 __s2b
00052bc6 g     O .rwdata	00000002 OSTmrCfgNameSize
000029bc g     F .text	00000194 __floatunsidf
0003a9d8 g     F .text	000000fc netmain_init
0001ef50 g     F .text	000000f4 marvell_cfg_sgmii
0001d844 g     F .text	000001b0 alt_tse_phy_restart_an
00009290 g     F .text	00000060 __mcmp
00054f04 g     O .bss	00000004 dsc_requests
00035adc g     F .text	00000488 tcp_respond
00037ef8 g     F .text	0000033c udp4_sockbind
00052c94 g     O .rwdata	00000004 __ctype_ptr
00054f50 g     O .bss	00000004 old_mode
00022534 g     F .text	0000026c igmp_joingroup
0002af34 g     F .text	00000358 so_icmpdu
00007804 g     F .text	00000018 __fp_lock_all
00055018 g     O .bss	00000004 vfs_dir_stale
00039000 g     F .text	00000048 alt_ic_irq_enabled
000ae880 g     O .bss	00000010 pphy_profiles
0004035c g     F .text	000000e4 ip_reasm_process_timer_tick
00048660 g     F .text	0000005c vclearerr
000239d4 g     F .text	000000ec bsd_setsockopt
0002a318 g     F .text	00000058 mbuf_len
00010924 g     F .text	000000e4 OS_FlagInit
00039760 g     F .text	00000098 alt_alarm_stop
00048360 g     F .text	000001e8 strippath
00052c04 g     O .rwdata	00000004 reqlist
000248d8 g     F .text	000001a0 tcp_sleep
0004a864 g     F .text	00000024 strtol
00024fb4 g     F .text	00000830 dhc_upcall
000374c4 g     F .text	000000e0 tcp_usrclosed
0b408000 g       *ABS*	00000000 __alt_mem_descriptor_memory
00054f3c g     O .bss	00000004 cticks_factor
00052ba8 g     O .rwdata	00000002 OSTaskIdleStkSize
00046430 g     F .text	00000254 in_pcbbind
00054f94 g     O .bss	00000004 alt_irq_active
00012700 g     F .text	000000c0 OSSemAccept
00011110 g     F .text	000000f0 OSMemPut
00010bc4 g     F .text	0000021c OSMemCreate
00054e7c g     O .bss	00000004 OSIdleCtrMax
000000ec g     F .exceptions	000000d0 alt_irq_handler
00052804 g     O .rwdata	00000028 alt_dev_null
00037884 g     F .text	00000040 tcp_pktfree
00052c26 g     O .rwdata	00000001 tcprexmtthresh
00052bbc g     O .rwdata	00000002 OSTicksPerSec
0003ca20 g     F .text	00000098 if_killsocks
0003d4d8 g     F .text	00000248 ip_write
00040ef8 g     F .text	0000060c ip_rcv_phase2
0002c5fc g     F .text	00000044 t_getsockname
0002c310 g     F .text	000002a8 t_connect
00052c20 g     O .rwdata	00000004 TCPTV_MSL
000aeea0 g     O .bss	00000010 memestats
0001d730 g     F .text	00000114 alt_tse_phy_init
00028de0 g     F .text	00000060 getch
00016370 g     F .text	000000ac alt_set_flash_algorithm_func
00052aa4 g     O .rwdata	00000080 vfs_root_path
0002c5b8 g     F .text	00000044 t_getpeername
00019598 g     F .text	00000070 alt_avalon_sgdma_check_descriptor_status
0003f058 g     F .text	000000a0 ip_reasm_decr_mem_useage
00030138 g     F .text	00000080 soreserve
00039c24 g       .text	00000000 OSIntCtxSw
0b40b800 g     O desc	00000020 Desc0
00029748 g     F .text	000000f4 npalloc
00038a94 g     F .text	00000044 alt_dcache_flush_all
0000915c g     F .text	00000070 __hi0bits
00054ff4 g     O .bss	00000004 ipraw_eps
00027e30 g     F .text	00000290 pk_init
00045620 g     F .text	00000180 md_fread
00049fbc g     F .text	0000001c calloc
00020060 g     F .text	000002f8 tse_mac_raw_send
0000c508 g     F .text	000000d8 __fixdfsi
000af4a4 g     O .bss	00000064 intimers
00030218 g     F .text	00000048 sbrelease
000312ec g     F .text	000000f0 ifd_clr
00030b48 g     F .text	00000094 sbdroprecord
00024110 g     F .text	00000080 uslash
00039a84 g     F .text	00000120 alt_write
000015a0 g     F .text	000001e4 hack_tse_mac_raw_send
00015f24 g     F .text	0000003c alt_write_flash_command_8bit_device_8bit_mode
00054fc4 g     O .bss	00000004 arpRepsIn
00024e24 g     F .text	00000090 dhc_get_srv_ipaddr
0003b008 g     F .text	0000017c in_timerset
00054e80 g     O .bss	00000004 OSTCBFreeList
00052c98 g       *ABS*	00000000 __ram_rwdata_end
00012df0 g     F .text	0000017c OSSemPendAbort
0003460c g     F .text	0000117c tcp_output
00054fa0 g     O .bss	00000004 activehost
00052c44 g     O .rwdata	00000008 alt_dev_list
00024448 g     F .text	0000022c parse_args
00054f54 g     O .bss	00000004 global_TCPwakeup_setIndx
000079f4 g     F .text	00000058 _fputc_r
00020b4c g     F .text	00000070 write
00019748 g     F .text	0000007c alt_avalon_sgdma_enable_desc_poll
0002983c g     F .text	000000b8 npfree
0000a22c g     F .text	000000e8 _putc_r
0003bda0 g     F .text	00000294 arpReply
00023c04 g     F .text	0000007c nextarg
00052bc0 g     O .rwdata	00000002 OSVersionNbr
0003fa08 g     F .text	00000594 ip_reasm_process_subsequent_fragments
00052c8c g     O .rwdata	00000004 pton_error
00054ef8 g     O .bss	00000004 dsc_errors
000a54f4 g     O .bss	00002000 SSSInitialTaskStk
000ae9f0 g     O .bss	00000014 rcvdq
00031284 g     F .text	00000068 tcp_notify
00050b30 g       *ABS*	00000000 __ram_rodata_end
0000c6a8 g     F .text	000000d4 fstat
00003200 g     F .text	0000002c fprintf
0002dd60 g     F .text	000000d4 soconnect
000421fc g     F .text	0000005c ip_raw_maxalloc
0001f144 g     F .text	00000080 DP83848C_link_status_read
00025a00 g     F .text	00000518 dhc_discover
000171c4 g     F .text	000000dc alt_check_primary_table
00001ec0 g     F .text	000000a8 SSSCreateOSDataStructs
00046970 g     F .text	0000007c in_setpeeraddr
00052b68 g     O .rwdata	00000004 OSEndiannessTest
00028e40 g     F .text	0000003c clock_init
0004741c g     F .text	000000e4 vfgets
0003b3d4 g     F .text	0000017c et_send
00009ee8 g     F .text	00000120 __pow5mult
00054e2c g     O .bss	00000004 __nlocale_changed
00002c94 g     F .text	00000008 __umodsi3
000159b4 g     F .text	00000068 alt_flash_cfi_read
000160f8 g     F .text	00000034 alt_write_native_8bit
00045c88 g     F .text	00000068 inet_addr
0003ef18 g     F .text	00000098 ip_reasm_check_mem_useage
0002ed68 g     F .text	00000100 sorflush
0004a89c g     F .text	00000020 vprintf
000aefb4 g     O .bss	000000fc global_tcb_ext
0003dba8 g     F .text	00000488 ip_fragment_lc
000aea04 g     O .bss	00000300 netstatic
0002be18 g     F .text	0000017c t_bind
000193a4 g     F .text	00000074 alt_avalon_sgdma_construct_mem_to_stream_desc
00052b7a g     O .rwdata	00000002 OSFlagGrpSize
00028a8c g     F .text	000000e4 udp_close
0001949c g     F .text	00000050 alt_avalon_sgdma_register_callback
0002942c g     F .text	0000021c alt_iniche_init
000af88c g       *ABS*	00000000 end
00029064 g     F .text	00000088 UNLOCK_NET_RESOURCE
0002cbbc g     F .text	000000f0 t_recv
0001f320 g     F .text	00000258 prep_tse_mac
00015f60 g     F .text	0000007c alt_write_flash_command_16bit_device_8bit_mode
000187d0 g     F .text	00000538 altera_avalon_lcd_16207_write
000477d4 g     F .text	000001ac vfread
00021368 g     F .text	000000e8 netclose
0000206c g     F .text	0000023c SSSSimpleSocketServerTask
00049fa4 g     F .text	0000000c _atoi_r
0001a1d4 g     F .text	000001d8 alt_tse_phy_add_profile
00016498 g     F .text	00000580 alt_read_cfi_table
00052c30 g     O .rwdata	00000004 tcp_keepintvl
000173e8 g     F .text	00000138 altera_avalon_jtag_uart_init
0000ec8c g     F .text	000000c8 OS_TaskStat
00054efc g     O .bss	00000004 dsc_discovers
00052bd8 g     O .rwdata	00000004 tse_mac_name
000527a4 g     O .rwdata	00000018 tcp_protosw
0004aed0 g       *ABS*	00000000 __CTOR_LIST__
00055014 g     O .bss	00000004 vfopen_error
08000000 g       *ABS*	00000000 __alt_stack_pointer
00054f88 g     O .bss	00000004 tcp_maxidle
00054f28 g     O .bss	00000004 firstudp
000197c4 g     F .text	0000005c alt_avalon_sgdma_disable_desc_poll
000a54c8 g     O .bss	0000002c Header
00019de4 g     F .text	00000090 alt_avalon_timer_sc_init
00002d34 g     F .text	00000080 __clzsi2
00017d20 g     F .text	000002dc altera_avalon_jtag_uart_write
000191f0 g     F .text	00000070 alt_avalon_sgdma_construct_mem_to_mem_desc
00015590 g     F .text	0000009c alt_flash_cfi_init
00007728 g     F .text	00000004 __sfp_lock_acquire
00008ed0 g     F .text	000000e4 memchr
0000e954 g     F .text	00000054 OS_MemClr
00003cc8 g     F .text	00001eac ___vfprintf_internal_r
00039cf4 g     F .text	00000310 OSTaskStkInit
0004a2a8 g     F .text	00000060 _sprintf_r
00054e04 g     O .bss	00000002 NTx
000192e0 g     F .text	00000054 alt_avalon_sgdma_construct_stream_to_mem_desc
00007c08 g     F .text	00000314 _free_r
000440bc g     F .text	00000170 igmpv2_chk4_rtr_alert_opt
0002d334 g     F .text	000000d0 t_socketclose
0000dfd4 g     F .text	00000194 OS_EventTaskRdy
0004a1d4 g     F .text	0000004c __srget_r
0004aa68 g     F .text	000001b0 __call_exitprocs
00020358 g     F .text	000000a8 tse_sgdmaRx_isr
00054e84 g     O .bss	00000001 OSCPUUsage
000aed04 g     O .bss	00000010 nets
00028fa4 g     F .text	000000c0 LOCK_NET_RESOURCE
00026dd8 g     F .text	000000e4 dhc_resetip
00054e30 g     O .bss	00000004 __mlocale_changed
000205a8 g     F .text	00000250 tse_mac_rcv
0002bd88 g     F .text	00000090 t_socket
00052b54 g     O .rwdata	00000004 __malloc_sbrk_base
000001bc g     F .text	0000004c _start
0003b380 g     F .text	00000054 etainit
00054f98 g     O .bss	00000004 _alt_tick_rate
0003ad30 g     F .text	00000024 mcastlist
00011afc g     F .text	00000320 OSQPend
000aeeb0 g     O .bss	000000f0 pktlog
00043bcc g     F .text	0000014c igmpv2_process_report
00031450 g     F .text	00000080 ifd_isset
00042804 g     F .text	00000144 del_route
00019608 g     F .text	00000058 alt_avalon_sgdma_open
00003c68 g     F .text	00000008 _user_strerror
00014d08 g     F .text	0000014c OSTimeDly
000554c6 g     O .bss	00050000 TransmitBuf
00001dc8 g     F .text	00000098 get_mac_addr
0002d760 g     F .text	000000f0 solisten
00009a78 g     F .text	0000014c __lshift
00054f9c g     O .bss	00000004 _alt_nticks
0001c388 g     F .text	000000c4 alt_tse_phy_rd_mdio_reg
00020ad4 g     F .text	00000078 read
000152d4 g     F .text	00000284 alt_sys_init
00036238 g     F .text	0000004c tcp_quench
00024190 g     F .text	00000184 ns_printf
0003c8a4 g     F .text	000000e0 isbcast
000290ec g     F .text	00000214 TK_NEWTASK
00000318 g     F .text	00000194 ADCToUDPM
0004a930 g     F .text	00000134 __register_exitproc
00054e85 g     O .bss	00000001 OSTaskCtr
00052b3c g     O .rwdata	00000004 buffer
0003ee2c g     F .text	000000ec ip_reasm_determine_type_of_frag
00054eb4 g     O .bss	00000001 phy_profile_count
0004a474 g     F .text	000000f0 strncmp
0001b03c g     F .text	00000080 alt_tse_get_mac_group_index
00015e98 g     F .text	00000044 alt_read_query_entry_16bit
00014e54 g     F .text	00000174 OSTimeDlyHMSM
00039720 g     F .text	00000040 alt_remap_uncached
00041df8 g     F .text	000000c0 ip_raw_close
00009bc4 g     F .text	000001e8 __multiply
000529f4 g     O .rwdata	000000b0 mdlist
000178f8 g     F .text	00000074 altera_avalon_jtag_uart_close
00021ff8 g     F .text	000000f8 igmp_input
0003dad0 g     F .text	000000d8 ip_raw_write
00050b30 g       *ABS*	00000000 __ram_rwdata_start
00047980 g     F .text	000003e8 vfwrite_locked
0004a564 g     F .text	000000bc strncpy
0004aed4 g       *ABS*	00000000 __ram_rodata_start
00054f00 g     O .bss	00000004 dsc_offers
0005542c g     O .bss	00000028 __malloc_current_mallinfo
00052b6e g     O .rwdata	00000002 OSEventMax
00045fbc g     F .text	00000074 inet_setport
00016190 g     F .text	000001e0 alt_set_flash_width_func
00009770 g     F .text	0000017c __d2b
00012f6c g     F .text	00000128 OSSemPost
00033f80 g     F .text	00000190 tcp_dooptions
00054e28 g     O .bss	00000004 SSSLEDEventFlag
0002f930 g     F .text	000000fc soisconnected
0000db58 g     F .text	000000e4 OSSchedUnlock
00041cb8 g     F .text	00000028 netexit
00054ee4 g     O .bss	00000004 nettick_wakes
0001c20c g     F .text	00000054 alt_tse_phy_wr_mdio_addr
00054f7c g     O .bss	00000001 tcpprintfs
0003b184 g     F .text	000000a8 in_timerkill
00043a6c g     F .text	00000160 igmpv2_input
00054f10 g     O .bss	00000004 dsc_declines
000172a0 g     F .text	00000058 altera_avalon_jtag_uart_read_fd
00023bd8 g     F .text	0000002c do_trap
00048b00 g     F .text	000000f4 alt_get_fd
000235d8 g     F .text	00000104 bsd_ioctl
00054e88 g     O .bss	00000004 OSMemFreeList
0000dcac g     F .text	000000ac OSStatInit
0002a628 g     F .text	000001ec tcp_rcv
00023f68 g     F .text	00000044 panic
0005501c g     O .bss	00000004 vfs_open_files
000486e0 g     F .text	0000014c alt_busy_sleep
000218f4 g     F .text	000001a4 ip2mac
0001068c g     F .text	000000d4 OSFlagQuery
0000c5e0 g     F .text	000000c8 __fpcmp_parts_d
00030f54 g     F .text	00000264 sock_select
000451d4 g     F .text	00000288 dhc_setup
0003596c g     F .text	00000058 tcp_init
00054f58 g     O .bss	00000004 cticks
00054eed g     O .bss	00000001 to_nettick
00052ba4 g     O .rwdata	00000002 OSTaskCreateExtEn
0000ae68 g     F .text	00000070 _close_r
00020bbc g     F .text	0000064c Netinit
000296dc g     F .text	00000038 prep_armintcp
00041934 g     F .text	00000168 in_addmulti
000359c4 g     F .text	00000118 tcp_template
0001e5b4 g     F .text	0000031c alt_tse_phy_get_common_speed
0002a418 g     F .text	00000070 remque
0003a180 g     F .text	00000218 alt_erase_block_amd
0004a888 g     F .text	00000014 _vprintf_r
00031540 g     F .text	00000408 tcp_reass
0004617c g     F .text	000001cc tcp_cksum
00038234 g     F .text	000003dc udp4_socksend
000471ec g     F .text	000001a8 vfclose_locked
000313dc g     F .text	00000074 ifd_set
0004a160 g     F .text	00000074 memcmp
0000dfb8 g     F .text	0000001c OS_Dummy
00017350 g     F .text	00000048 altera_avalon_jtag_uart_close_fd
00027cb4 g     F .text	000000b0 dhc_set_state
00054ec4 g     O .bss	00000004 NDEBUG
000af88c g       *ABS*	00000000 __alt_stack_base
00017398 g     F .text	00000050 altera_avalon_jtag_uart_ioctl_fd
000301b8 g     F .text	00000060 sbreserve
00054eb5 g     O .bss	00000001 mac_group_count
00041eb8 g     F .text	00000238 ip_raw_input
00003260 g     F .text	0000009c _fwrite_r
00052c10 g     O .rwdata	00000004 lilbufsiz
000314d0 g     F .text	00000070 ifd_get
0003009c g     F .text	0000009c sbwakeup
00005b98 g     F .text	0000013c __swsetup_r
00016a18 g     F .text	000007ac alt_read_cfi_width
000acd0c g     O .bss	000001e0 OSQTbl
0003423c g     F .text	0000026c tcp_xmit_timer
00020400 g     F .text	000001a8 tse_sgdma_read_init
0000266c g     F .text	00000258 __divdf3
00054e06 g     O .bss	00000001 SGDMAFInWork
000078a0 g     F .text	000000f0 __sfp
0003cbb4 g     F .text	000001a4 ip_bldhead
000095d4 g     F .text	00000058 __copybits
00030260 g     F .text	000000a8 sbappend
00051074 g     O .rwdata	00000408 __malloc_av_
00007734 g     F .text	00000004 __sinit_lock_release
00054e8c g     O .bss	00000004 OSTCBHighRdy
000022a8 g     F .text	000003c4 __muldf3
0003d720 g     F .text	000003b0 ip_write2
0000aad4 g     F .text	00000060 __sread
00052c78 g     O .rwdata	00000004 arp_ageout
00054e90 g     O .bss	00000004 OSQFreeList
0001cfc0 g     F .text	00000418 alt_tse_mac_get_phy
0003cab8 g     F .text	000000fc ip_init
000489e0 g     F .text	00000120 alt_find_file
000421bc g     F .text	00000040 ip_raw_free
0003bc8c g     F .text	00000114 make_arp_entry
00038b04 g     F .text	000000b4 alt_dev_llist_insert
0000cdfc g     F .text	00000108 __malloc_lock
0000322c g     F .text	00000034 _fprintf_r
0000cc38 g     F .text	000000bc sbrk
00037a4c g     F .text	00000070 udp_lookup
000194ec g     F .text	00000054 alt_avalon_sgdma_start
0000d104 g     F .text	00000144 OSEventNameSet
000074a0 g     F .text	000001fc _fflush_r
0001b314 g     F .text	00000098 alt_tse_mac_set_duplex
0000adb4 g     F .text	000000b4 _calloc_r
00054e94 g     O .bss	00000001 OSRdyGrp
000455d8 g     F .text	00000028 md_fopen
000527bc g     O .rwdata	00000018 udp_protosw
00052c54 g     O .rwdata	00000008 alt_flash_dev_list
00016024 g     F .text	00000044 alt_write_flash_command_16bit_device_16bit_mode
000468f4 g     F .text	0000007c in_setsockaddr
00054e00 g       *ABS*	00000000 __bss_start
00030308 g     F .text	000000e0 sbappendrecord
000af61c g     O .bss	00000050 ip_mib
0000333c g     F .text	00000098 memset
0002de34 g     F .text	000000a0 sodisconnect
00001a74 g     F .text	0000007c main
00054e50 g     O .bss	00000004 alt_envp
00054e40 g     O .bss	00000004 __malloc_max_total_mem
00001f84 g     F .text	00000070 sss_reset_connection
0002a148 g     F .text	000001d0 m_adj
000172f8 g     F .text	00000058 altera_avalon_jtag_uart_write_fd
0000ad20 g     F .text	0000001c __swbuf
00045870 g     F .text	000000d8 md_fgetc
0004c6c4 g     O .rodata	00000100 OSUnMapTbl
0003e700 g     F .text	000002b8 ip_dump
00024c1c g     F .text	00000208 tk_stats
00052bec g     O .rwdata	00000008 alt_iniche_dev_list
000a94f4 g     O .bss	00000078 SSSLEDCommandQTbl
00018dd4 g     F .text	00000164 altera_avalon_lcd_16207_init
00052be0 g     O .rwdata	00000008 alt_sgdma_list
00052b9e g     O .rwdata	00000002 OSSemEn
00054f40 g     O .bss	00000004 OS_TPS
0002b554 g     F .text	000007e8 rawip_usrreq
000102e4 g     F .text	000003a8 OSFlagPost
0000a9e8 g     F .text	00000008 __sclose
00045e98 g     F .text	00000060 print46_addr
08000000 g       *ABS*	00000000 __alt_heap_limit
0000afe8 g     F .text	00000014 fclose
0000e168 g     F .text	00000110 OS_EventTaskWait
0004a620 g     F .text	00000244 _strtol_r
00023e3c g     F .text	0000012c print_uptime
0000ed54 g     F .text	000000c8 OS_TaskStatStkChk
000af6fc g     O .bss	00000190 _atexit0
0001401c g     F .text	00000170 OSTaskDelReq
00005eec g     F .text	000015b4 _dtoa_r
00008790 g     F .text	00000740 _malloc_r
00045948 g     F .text	00000024 md_unlink
0001a094 g     F .text	00000094 tse_mac_SwReset
000463dc g     F .text	00000054 in_pcbdetach
00052c50 g     O .rwdata	00000004 alt_errno
00052c88 g     O .rwdata	00000004 mdlist_size
0000dc3c g     F .text	00000070 OSStart
000160b0 g     F .text	00000048 alt_write_flash_command_32bit_device_32bit_mode
00044b28 g     F .text	00000030 u_mctest_init
0000cda0 g     F .text	0000005c __env_unlock
00001144 g     F .text	00000044 swap2
00008480 g     F .text	000000b8 _fwalk
00014508 g     F .text	00000218 OSTaskResume
00011200 g     F .text	000000fc OSMemQuery
00046030 g     F .text	0000014c convert_ip
0003bae4 g     F .text	000001a8 find_oldest_arp
00052bb0 g     O .rwdata	00000002 OSTaskStatEn
00054fbc g     O .bss	00000004 arpReqsIn
00046de4 g     F .text	00000050 vf_free_buffer
00015a1c g     F .text	00000164 alt_write_value_to_flash
0004882c g     F .text	00000154 alt_fcntl
00052b8a g     O .rwdata	00000002 OSMemMax
00012118 g     F .text	00000188 OSQPostFront
0001612c g     F .text	00000034 alt_write_native_16bit
00028d04 g     F .text	00000030 dtrap
00052c1c g     O .rwdata	00000004 kb_last
0000a128 g     F .text	00000104 putc
00002bcc g     F .text	00000060 __divsi3
0001af78 g     F .text	00000048 alt_tse_mac_set_common_speed
00054e95 g     O .bss	00000003 OSRdyTbl
00052b64 g     O .rwdata	00000002 OSDebugEn
0a800000 g       *ABS*	00000000 __alt_mem_cfi_flash
0004bbfc g     O .rodata	00000014 __thenan_df
00021de8 g     F .text	000000d0 ip_exit
00007adc g     F .text	0000012c _malloc_trim_r
00000278 g     F .text	000000a0 SGDMAFDone
0004aed4 g       *ABS*	00000000 __CTOR_END__
00052b7c g     O .rwdata	00000002 OSFlagNodeSize
00054ef4 g     O .bss	00000004 dhc_conn
00028e98 g     F .text	0000006c cticks_hook
00052bc4 g     O .rwdata	00000002 OSTmrCfgMax
0003aca8 g     F .text	0000003c sysuptime
0000ab34 g     F .text	000000bc strcmp
00040440 g     F .text	000001c8 ip_reasm_delete_ire
00011520 g     F .text	00000214 OSQCreate
00028f04 g     F .text	0000005c irq_Mask
0001418c g     F .text	000001b8 OSTaskNameGet
00054fa8 g     O .bss	00000004 nextppp
00054f34 g     O .bss	00000004 irq_level
00021208 g     F .text	00000160 fixup_subnet_mask
0004aed4 g       *ABS*	00000000 __flash_rodata_start
000122a0 g     F .text	00000234 OSQPostOpt
0000dd58 g     F .text	00000240 OSTimeTick
0003ec24 g     F .text	00000138 ip_copypkt
00027bb0 g     F .text	00000090 dhc_alldone
00052bac g     O .rwdata	00000002 OSTaskMax
0004aed4 g       *ABS*	00000000 __DTOR_LIST__
000127c0 g     F .text	00000114 OSSemCreate
00054ed8 g     O .bss	00000004 igmp_all_hosts_group
00052bd0 g     O .rwdata	00000002 OSTmrWheelSize
0002fffc g     F .text	00000038 sbselqueue
00054ee0 g     O .bss	00000004 netmain_wakes
0003c034 g     F .text	00000260 arprcv
00024868 g     F .text	00000070 TK_OSTaskResume
00022b78 g     F .text	000003e0 igmp_print_stats
0000c2e8 g     F .text	00000088 __nedf2
00029994 g     F .text	000000a0 pffindtype
00052ba6 g     O .rwdata	00000002 OSTaskDelEn
00052c34 g     O .rwdata	00000004 tcp_sendspace
00047f44 g     F .text	00000134 vftell
000aed78 g     O .bss	00000012 eth_prt_buf
00013094 g     F .text	00000130 OSSemQuery
00011734 g     F .text	00000300 OSQDel
00011e1c g     F .text	0000017c OSQPendAbort
000152a0 g     F .text	00000034 alt_irq_init
0001af38 g     F .text	00000040 alt_tse_mac_get_common_speed
000af1e0 g     O .bss	00000018 app_semaphore
000396c0 g     F .text	00000060 alt_release_fd
000293b4 g     F .text	00000078 post_app_sem
00021f48 g     F .text	000000b0 igmp_init
0004a234 g     F .text	00000074 sprintf
0004bc10 g     O .rodata	00000100 __clz_tab
00054f1c g     O .bss	00000004 dsc_renew
000457a0 g     F .text	00000080 md_fwrite
00054e34 g     O .bss	00000004 _PathLocale
00054f44 g     O .bss	00000004 tcp_sleep_count
0002a488 g     F .text	0000007c insque
00049f90 g     F .text	00000014 atexit
00055010 g     O .bss	00000004 vfsfiles
0000ad3c g     F .text	00000078 _write_r
0004a8bc g     F .text	00000050 _vsprintf_r
000431a0 g     F .text	000002b8 udp_send
0000dacc g     F .text	0000008c OSSchedLock
0002228c g     F .text	000002a8 igmp_send
000085e0 g     F .text	0000001c setlocale
0000f5bc g     F .text	0000013c OSFlagCreate
000a956c g     O .bss	00002000 LEDManagementTaskStk
00028f60 g     F .text	00000044 irq_Unmask
0002bf94 g     F .text	000000e4 t_listen
00052b40 g     O .rwdata	00000004 _impure_ptr
00050b30 g     O .rwdata	00000018 ssstask
00054e48 g     O .bss	00000004 alt_argc
00036bb8 g     F .text	00000704 tcp_usrreq
00037c74 g     F .text	00000284 udp_usrreq
000298f4 g     F .text	00000054 ncpalloc
00038c7c g     F .text	00000064 _do_dtors
00052b76 g     O .rwdata	00000002 OSEventMultiEn
00052c70 g     O .rwdata	00000004 pingdelay
0003b5d8 g     F .text	00000074 arp_send_pending
000ae790 g     O .bss	000000e0 tse_mac_if
00043784 g     F .text	000002e8 igmpv1_input
0004ac18 g     F .text	000001c4 __srefill_r
00029648 g     F .text	00000074 pre_task_setup
00054f64 g     O .bss	00000004 rcvdq_sem_ptr
000231bc g     F .text	0000012c bsd_getsockname
00040608 g     F .text	00000148 ip_reasm_mark_compact_rfq
0000f6f8 g     F .text	000002a8 OSFlagDel
00054e98 g     O .bss	00000004 OSEventFreeList
00024f70 g     F .text	00000044 dhc_set_callback
00000020 g       .exceptions	00000000 alt_irq_entry
00054fb8 g     O .bss	00000004 arpcache
000498b8 g     F .text	00000350 icmp_destun
00041bb4 g     F .text	00000070 lookup_mcast
00048318 g     F .text	00000048 vfslookup
00041504 g     F .text	00000430 ip_demux
000092f0 g     F .text	00000080 __ulp
0000a908 g     F .text	00000040 __isinfd
00054f48 g     O .bss	00000004 tcp_wakeup_count
0000fc38 g     F .text	00000644 OSFlagPend
00052bc2 g     O .rwdata	00000002 OSTmrEn
000077ec g     F .text	00000018 __fp_unlock_all
00029300 g     F .text	000000b4 wait_app_sem
00018f38 g     F .text	00000058 altera_avalon_lcd_16207_write_fd
000377f4 g     F .text	00000090 tcp_pktalloc
00007990 g     F .text	00000064 fputc
00052bf4 g     O .rwdata	00000004 ipmcfail_str
00054f5c g     O .bss	00000004 memtrapsize
00029e24 g     F .text	00000324 m_copy
00054e08 g     O .bss	00000002 NInQueue
00052c3c g     O .rwdata	00000008 alt_fs_list
000af25c g     O .bss	00000014 mfreeq
0000eb58 g     F .text	00000080 OS_StrCopy
0002d704 g     F .text	0000005c sobind
0b40b840 g     O desc	00000020 NextDesc0
00045560 g     F .text	00000078 init_memdev
00054e1a g     O .bss	00000001 to_ssstask
00015fdc g     F .text	00000048 alt_write_flash_command_32bit_device_8bit_mode
0002a504 g     F .text	00000124 nptcp_init
00052b8c g     O .rwdata	00000002 OSMemNameSize
000af0b0 g     O .bss	000000f0 global_TCPwakeup_set
0003a0c0 g     F .text	0000001c OSInitHookEnd
0002fab8 g     F .text	000000bc soisdisconnected
00000020 g       *ABS*	00000000 __ram_exceptions_start
0003b550 g     F .text	00000088 arp_free_pending
00052bb8 g     O .rwdata	00000002 OSTCBPrioTblMax
0000854c g     F .text	00000010 localeconv
0002d980 g     F .text	000002f4 soclose
000aefa0 g     O .bss	00000014 bigfreeq
0b404000 g       *ABS*	00000000 __alt_mem_onchip_memory2
00052bb4 g     O .rwdata	00000002 OSTaskStatStkChkEn
00052c6c g     O .rwdata	00000004 prompt
00052c2c g     O .rwdata	00000004 tcp_keepidle
0001e41c g     F .text	00000198 alt_tse_phy_set_adv_10
0002b380 g     F .text	000001d4 rawip_soinput
00038e74 g     F .text	00000050 alt_ic_isr_register
00047d68 g     F .text	00000060 vfwrite
00052b88 g     O .rwdata	00000002 OSMemEn
0002fd90 g     F .text	000000ac soqinsque
00054fec g     O .bss	00000004 so_evtmap_delete
000032fc g     F .text	00000040 fwrite
00052b92 g     O .rwdata	00000002 OSMutexEn
00054fd8 g     O .bss	00000004 h_ireq
00052c98 g       *ABS*	00000000 _edata
0003e030 g     F .text	00000624 ip_fragment
00020990 g     F .text	00000144 iniche_devices_init
000af270 g     O .bss	00000028 tcp_saveti
00024358 g     F .text	000000f0 con_page
000af88c g       *ABS*	00000000 _end
0002f340 g     F .text	00000540 sogetopt
00038d74 g     F .text	0000007c alt_flash_open_dev
00054e9c g     O .bss	00000001 OSIntNesting
0001d3d8 g     F .text	00000238 alt_tse_mac_associate_phy
00052774 g     O .rwdata	00000030 nettasks
00028500 g     F .text	00000020 pk_get_max_intrsafe_buf_len
0003e9b8 g     F .text	0000026c iproute
0002ae4c g     F .text	000000e8 np_stripoptions
00054ff0 g     O .bss	00000001 so_evtmap
000001bc g       *ABS*	00000000 __ram_exceptions_end
0001796c g     F .text	000000f4 altera_avalon_jtag_uart_ioctl
00007a4c g     F .text	00000074 _fputs_r
00014fc8 g     F .text	00000210 OSTimeDlyResume
00001f68 g     F .text	0000001c SSSCreateTasks
000423dc g     F .text	00000428 add_route
0000fae4 g     F .text	00000154 OSFlagNameSet
00021824 g     F .text	000000d0 c_older
000307d8 g     F .text	00000090 sbflush
00045600 g     F .text	00000020 md_fclose
00024bf0 g     F .text	0000002c tk_yield
00054e0c g     O .bss	00000004 PTx
00014720 g     F .text	000001fc OSTaskStkChk
00038f60 g     F .text	000000a0 alt_ic_irq_disable
0002ded4 g     F .text	00000608 sosend
00052b8e g     O .rwdata	00000002 OSMemSize
0003e654 g     F .text	000000ac ip_mymach
000196c0 g     F .text	00000088 alt_avalon_sgdma_construct_descriptor
0000aa58 g     F .text	0000007c __swrite
00054f30 g     O .bss	00000004 cticks_initialized
00052c74 g     O .rwdata	00000004 deflength
0002cdfc g     F .text	0000022c t_sendto
00052b50 g     O .rwdata	00000004 __malloc_trim_threshold
000033d4 g     F .text	0000006c _perror_r
00054ea0 g     O .bss	00000004 OSTCBCur
0002d538 g     F .text	000001cc socreate
00049fd8 g     F .text	00000038 exit
000af508 g     O .bss	00000100 arp_table
00055028 g     O .bss	00000004 icmpdu_hook
00052b90 g     O .rwdata	00000002 OSMemTblSize
000083b8 g     F .text	000000c8 _fwalk_reent
0003b22c g     F .text	00000024 create_apptasks
00052c28 g     O .rwdata	00000004 tcp_ttl
000098ec g     F .text	0000018c __mdiff
00038df0 g     F .text	00000054 alt_flash_close_dev
00029948 g     F .text	0000004c ncpfree
00002c2c g     F .text	00000060 __modsi3
00054ebc g     O .bss	00000004 MaxLnh
0b40b880 g     O desc	00000020 DescHeader
0001a180 g     F .text	00000054 tse_mac_setGMIImode
00045e0c g     F .text	0000008c inet_ntop
00043718 g     F .text	0000002c udp_maxalloc
0001ee5c g     F .text	000000f4 marvell_cfg_gmii
08000000 g       *ABS*	00000000 __alt_data_end
00000020 g     F .exceptions	00000000 alt_exception
0000772c g     F .text	00000004 __sfp_lock_release
0000d8fc g     F .text	00000054 OSInit
00000000 g       *ABS*	00000000 __alt_mem_sdram
0001d610 g     F .text	00000120 alt_tse_phy_cfg_pcs
00014b48 g     F .text	00000144 OSTaskQuery
0003aad4 g     F .text	00000088 icmp_port_du
00054f8c g     O .bss	00000004 tcp_iss
00012654 g     F .text	000000ac OS_QInit
00049fb0 g     F .text	0000000c atoi
00052c18 g     O .rwdata	00000004 bigbufsiz
0000ebd8 g     F .text	00000058 OS_StrLen
00036284 g     F .text	00000080 tcp_putseq
00010ff0 g     F .text	00000120 OSMemNameSet
000508ac g     O .rodata	00000101 _ctype_
000303e8 g     F .text	00000208 sbappendaddr
00055020 g     O .bss	00000004 vfs_total_rw_space
00044964 g     F .text	00000140 ip_getmoptions
00001188 g     F .text	000000c8 checksum
00052baa g     O .rwdata	00000002 OSTaskProfileEn
00043458 g     F .text	00000130 udpswap
00054ea4 g     O .bss	00000004 OSTime
00054f68 g     O .bss	00000004 nextslow
0003637c g     F .text	00000344 tcp_slowtimo
00035f64 g     F .text	00000118 tcp_newtcpcb
0003c294 g     F .text	000001a8 send_via_arp
00024eb4 g     F .text	000000bc dhc_init
0003ff9c g     F .text	00000064 ip_reasm_find_ire
000aceec g     O .bss	00000800 OSTaskIdleStk
0004ae38 g     F .text	0000002c _exit
00048548 g     F .text	00000064 isvfile_locked
0000a948 g     F .text	00000030 __isnand
0002386c g     F .text	00000168 bsd_select
0003876c g     F .text	00000154 alt_alarm_start
0000f9a0 g     F .text	00000144 OSFlagNameGet
00043744 g     F .text	00000040 udp_free
000285cc g     F .text	000000c8 getq
000486bc g     F .text	00000024 prep_vfs
000151d8 g     F .text	00000064 OSTimeGet
00052c68 g     O .rwdata	00000004 name
00030a38 g     F .text	00000110 sbdropend
00002c9c g     F .text	00000098 __muldi3
000085fc g     F .text	00000194 __smakebuf_r
00016160 g     F .text	00000030 alt_write_native_32bit
000004ac g     F .text	000000f0 ADCToMem
0003c43c g     F .text	00000118 cb_arpent_tmo
00054e10 g     O .bss	00000004 PDmaDevice
00003bf4 g     F .text	00000074 strlen
0004422c g     F .text	00000148 IPADDR_TO_NETP
000236dc g     F .text	00000030 bsd_inet_ntoa
0003a044 g     F .text	0000001c OSTaskSwHook
00039358 g     F .text	00000188 open
00028854 g     F .text	00000238 udp_open
000ad6ec g     O .bss	00000b40 OSEventTbl
0002ff5c g     F .text	00000050 socantsendmore
00055024 g     O .bss	00000004 vfs_total_dyna_files
0000c3f8 g     F .text	00000088 __gedf2
000ae22c g     O .bss	00000510 OSTCBTbl
00054fc0 g     O .bss	00000004 arpReqsOut
000131c4 g     F .text	00000104 OSSemSet
00052c90 g     O .rwdata	00000004 http_root_path
000270a0 g     F .text	000002bc dhc_extract_opts
0003f478 g     F .text	00000590 ip_reasm_compute_overlap
00015924 g     F .text	00000090 alt_flash_cfi_get_info
00054e14 g     O .bss	00000004 PRx
00019ff0 g     F .text	000000a4 tse_mac_aRxRead
00038e44 g     F .text	00000030 alt_icache_flush_all
00054e18 g     O .bss	00000002 NRx
0004a308 g     F .text	000000e0 strchr
000aed8a g     O .bss	00000012 ipreturn
00054fe0 g     O .bss	00000004 port_prep
000527f7 g     O .rwdata	0000000d tcp_backoff
0002f8c4 g     F .text	0000006c soisconnecting
000019fc g     F .text	00000078 SSSInitialTask
00007ac0 g     F .text	0000001c fputs
00052c5c g     O .rwdata	00000004 alt_priority_mask
0b40b820 g     O desc	00000020 Desc1
00043d18 g     F .text	0000024c igmpv2_process_query
00030bdc g     F .text	00000220 t_select
000128d4 g     F .text	000002a0 OSSemDel
0b40b8c0 g     O desc	00000020 DescEnd
0b40b860 g     O desc	00000020 NextDesc1
00038610 g     F .text	0000015c udp4_sockaddr
00054ea8 g     O .bss	00000004 OSFlagFreeList
00046684 g     F .text	00000210 in_pcbconnect
00054f80 g     O .bss	00000004 dropline
00054fdc g     O .bss	00000004 ire_cticks
00038ec4 g     F .text	0000009c alt_ic_irq_enable
00052b70 g     O .rwdata	00000002 OSEventNameSize
00005b74 g     F .text	00000024 __vfprintf_internal
00024768 g     F .text	00000088 tk_netmain
00046894 g     F .text	00000060 in_pcbdisconnect
00054eac g     O .bss	00000001 OSStatRdy
000ae73c g     O .bss	00000054 OSTCBPrioTbl
0000ccf4 g     F .text	000000ac __env_lock
00052bb6 g     O .rwdata	00000002 OSTaskSwHookEn
000529d0 g     O .rwdata	00000024 mdio
00001ff4 g     F .text	00000078 GetNextData
0001b228 g     F .text	000000ec alt_tse_mac_set_speed
00022f58 g     F .text	00000138 bsd_accept
00019260 g     F .text	00000080 alt_avalon_sgdma_construct_mem_to_mem_desc_burst
00052c38 g     O .rwdata	00000004 tcp_recvspace
0000c16c g     F .text	00000080 __subdf3
00037a00 g     F .text	0000004c tcpinit
00054edc g     O .bss	00000004 igmp_all_rtrs_group
0002b310 g     F .text	00000070 rawip_lookup
0003b2d0 g     F .text	000000b0 fcntl
000091cc g     F .text	000000c4 __lo0bits
000305f0 g     F .text	000001e8 sbcompress
00052c60 g     O .rwdata	00000008 alt_alarm_list
0003607c g     F .text	000000d4 tcp_drop
00052b7e g     O .rwdata	00000002 OSFlagWidth
00038c18 g     F .text	00000064 _do_ctors
0001e20c g     F .text	00000210 alt_tse_phy_set_adv_100
0003671c g     F .text	0000049c tcp_timers
00021eb8 g     F .text	00000090 if_netnumber
00044aa4 g     F .text	00000084 ip_freemoptions
0002f880 g     F .text	00000044 sohasoutofband
00031948 g     F .text	00002638 tcp_input
00023090 g     F .text	0000012c bsd_getpeername
0002370c g     F .text	00000160 bsd_recvfrom
0002093c g     F .text	00000054 close
00054f0c g     O .bss	00000004 dsc_bpreplys
0003a118 g     F .text	00000068 alt_program_amd
00054e58 g     O .bss	00000004 alt_envsem
00054eb0 g     O .bss	00000004 OSIdleCtrRun
0000df98 g     F .text	00000020 OSVersion
00052bc8 g     O .rwdata	00000002 OSTmrCfgWheelSize
0000c8fc g     F .text	00000080 alt_load
00014c8c g     F .text	0000007c OS_TaskStkClr
00046c48 g     F .text	00000028 set_vfopen_error
00002db4 g     F .text	00000314 __pack_d
00052ba2 g     O .rwdata	00000002 OSTaskCreateEn
0001afc0 g     F .text	0000007c alt_tse_get_system_index
000527d4 g     O .rwdata	00000018 rawip_protosw
00030034 g     F .text	00000068 sbwait
0000e588 g     F .text	00000068 OS_EventWaitListInit
0002735c g     F .text	0000059c dhc_second
00019cc8 g     F .text	000000ac alt_avalon_sgdma_init
00054fac g     O .bss	00000004 port_1s_callout
0003a0dc g     F .text	0000001c OSTaskIdleHook
0004a138 g     F .text	00000014 free
00007730 g     F .text	00000004 __sinit_lock_acquire
00054eb8 g     O .bss	00000001 number_of_tse_mac
00009de8 g     F .text	00000100 __multadd
0001491c g     F .text	0000022c OSTaskSuspend
00009134 g     F .text	00000028 _Bfree
00019e74 g     F .text	0000002c no_printf
0002fb74 g     F .text	0000021c sonewconn
00048c84 g     F .text	00000c34 icmprcv
00029a34 g     F .text	000000d0 pffindproto
0000ec30 g     F .text	0000005c OS_TaskIdle
00052bce g     O .rwdata	00000002 OSTmrTblSize
000124d4 g     F .text	00000180 OSQQuery



Disassembly of section .entry:

00000000 <__reset>:
#if NIOS2_ICACHE_SIZE > 0 && defined(ALT_ALLOW_CODE_AT_RESET) && !defined(ALT_SIM_OPTIMIZE)
    /* Assume the instruction cache size is always a power of two. */
#if NIOS2_ICACHE_SIZE > 0x8000
    movhi r2, %hi(NIOS2_ICACHE_SIZE)
#else
    movui r2, NIOS2_ICACHE_SIZE
   0:	00840014 	movui	r2,4096
#endif

0:
    initi r2
   4:	1001483a 	initi	r2
    addi r2, r2, -NIOS2_ICACHE_LINE_SIZE
   8:	10bff804 	addi	r2,r2,-32
    bgt r2, zero, 0b
   c:	00bffd16 	blt	zero,r2,4 <__reset+0x4>
 * Jump to the _start entry point in the .text section if reset code
 * is allowed or if optimizing for RTL simulation.
 */
#if defined(ALT_ALLOW_CODE_AT_RESET) || defined(ALT_SIM_OPTIMIZE)
    /* Jump to the _start entry point in the .text section. */
    movhi r1, %hi(_start)
  10:	00400034 	movhi	at,0
    ori r1, r1, %lo(_start)
  14:	08406f14 	ori	at,at,444
    jmp r1
  18:	0800683a 	jmp	at
  1c:	00000000 	call	0 <__reset>

Disassembly of section .exceptions:

00000020 <alt_exception>:
         * Process an exception.  For all exceptions we must preserve all
         * caller saved registers on the stack (See the Nios2 ABI
         * documentation for details).
         */

        addi  sp, sp, -76
  20:	deffed04 	addi	sp,sp,-76

#endif

#endif

        stw   ra,  0(sp)
  24:	dfc00015 	stw	ra,0(sp)
        /*
         * Leave a gap in the stack frame at 4(sp) for the muldiv handler to
         * store zero into.
         */

        stw   r1,   8(sp)
  28:	d8400215 	stw	at,8(sp)
        stw   r2,  12(sp)
  2c:	d8800315 	stw	r2,12(sp)
        stw   r3,  16(sp)
  30:	d8c00415 	stw	r3,16(sp)
        stw   r4,  20(sp)
  34:	d9000515 	stw	r4,20(sp)
        stw   r5,  24(sp)
  38:	d9400615 	stw	r5,24(sp)
        stw   r6,  28(sp)
  3c:	d9800715 	stw	r6,28(sp)
        stw   r7,  32(sp)
  40:	d9c00815 	stw	r7,32(sp)

        rdctl r5, estatus
  44:	000b307a 	rdctl	r5,estatus

        stw   r8,  36(sp)
  48:	da000915 	stw	r8,36(sp)
        stw   r9,  40(sp)
  4c:	da400a15 	stw	r9,40(sp)
        stw   r10, 44(sp)
  50:	da800b15 	stw	r10,44(sp)
        stw   r11, 48(sp)
  54:	dac00c15 	stw	r11,48(sp)
        stw   r12, 52(sp)
  58:	db000d15 	stw	r12,52(sp)
        stw   r13, 56(sp)
  5c:	db400e15 	stw	r13,56(sp)
        stw   r14, 60(sp)
  60:	db800f15 	stw	r14,60(sp)
        stw   r15, 64(sp)
  64:	dbc01015 	stw	r15,64(sp)
        /*
         * ea-4 contains the address of the instruction being executed
         * when the exception occured. For interrupt exceptions, we will
         * will be re-issue the isntruction. Store it in 72(sp)
         */
        stw   r5,  68(sp)  /* estatus */
  68:	d9401115 	stw	r5,68(sp)
        addi  r15, ea, -4  /* instruction that caused exception */
  6c:	ebffff04 	addi	r15,ea,-4
        stw   r15,  72(sp)
  70:	dbc01215 	stw	r15,72(sp)
#else
        /*
         * Test to see if the exception was a software exception or caused 
         * by an external interrupt, and vector accordingly.
         */
        rdctl r4, ipending
  74:	0009313a 	rdctl	r4,ipending
        andi  r2, r5, 1
  78:	2880004c 	andi	r2,r5,1
        beq   r2, zero, .Lnot_irq
  7c:	10000326 	beq	r2,zero,8c <OSCtxSw_SWITCH_PC+0x4c>
        beq   r4, zero, .Lnot_irq
  80:	20000226 	beq	r4,zero,8c <OSCtxSw_SWITCH_PC+0x4c>
        /*
         * Now that all necessary registers have been preserved, call 
         * alt_irq_handler() to process the interrupts.
         */

        call alt_irq_handler
  84:	00000ec0 	call	ec <alt_irq_handler>

        .section .exceptions.irqreturn, "xa"

        br    .Lexception_exit
  88:	00000306 	br	98 <OSCtxSw_SWITCH_PC+0x58>
         * upon completion, so we write ea (address of instruction *after*
         * the one where the exception occured) into 72(sp). The actual
         * instruction that caused the exception is written in r2, which these
         * handlers will utilize.
         */
        stw   ea,  72(sp)  /* Don't re-issue */
  8c:	df401215 	stw	ea,72(sp)
        ldw   r2, -4(ea)   /* Instruction that caused exception */
  90:	e8bfff17 	ldw	r2,-4(ea)
#ifdef NIOS2_HAS_DEBUG_STUB
       /*
        *  Either tell the user now (if there is a debugger attached) or go into
        *  the debug monitor which will loop until a debugger is attached.
        */
        break
  94:	003da03a 	break	0
        /* 
         * Restore the saved registers, so that all general purpose registers 
         * have been restored to their state at the time the interrupt occured.
         */

        ldw   r5,  68(sp)
  98:	d9401117 	ldw	r5,68(sp)
        ldw   ea,  72(sp)  /* This becomes the PC once eret is executed */
  9c:	df401217 	ldw	ea,72(sp)
        ldw   ra,   0(sp)
  a0:	dfc00017 	ldw	ra,0(sp)

        wrctl estatus, r5
  a4:	2801707a 	wrctl	estatus,r5

        ldw   r1,   8(sp)
  a8:	d8400217 	ldw	at,8(sp)
        ldw   r2,  12(sp)
  ac:	d8800317 	ldw	r2,12(sp)
        ldw   r3,  16(sp)
  b0:	d8c00417 	ldw	r3,16(sp)
        ldw   r4,  20(sp)
  b4:	d9000517 	ldw	r4,20(sp)
        ldw   r5,  24(sp)
  b8:	d9400617 	ldw	r5,24(sp)
        ldw   r6,  28(sp)
  bc:	d9800717 	ldw	r6,28(sp)
        ldw   r7,  32(sp)
  c0:	d9c00817 	ldw	r7,32(sp)
#ifdef ALT_STACK_CHECK
        ldw   et, %gprel(alt_exception_old_stack_limit)(gp)
#endif
#endif

        ldw   r8,  36(sp)
  c4:	da000917 	ldw	r8,36(sp)
        ldw   r9,  40(sp)
  c8:	da400a17 	ldw	r9,40(sp)
        ldw   r10, 44(sp)
  cc:	da800b17 	ldw	r10,44(sp)
        ldw   r11, 48(sp)
  d0:	dac00c17 	ldw	r11,48(sp)
        ldw   r12, 52(sp)
  d4:	db000d17 	ldw	r12,52(sp)
        ldw   r13, 56(sp)
  d8:	db400e17 	ldw	r13,56(sp)
        ldw   r14, 60(sp)
  dc:	db800f17 	ldw	r14,60(sp)
        ldw   r15, 64(sp)
  e0:	dbc01017 	ldw	r15,64(sp)
#endif

        ldw   sp,  76(sp)

#else
        addi  sp, sp, 76
  e4:	dec01304 	addi	sp,sp,76

        /*
         * Return to the interrupted instruction.
         */

        eret
  e8:	ef80083a 	eret

000000ec <alt_irq_handler>:
 * instruction is present if the macro ALT_CI_INTERRUPT_VECTOR defined.
 */

void alt_irq_handler (void) __attribute__ ((section (".exceptions")));
void alt_irq_handler (void)
{
  ec:	defff904 	addi	sp,sp,-28
  f0:	dfc00615 	stw	ra,24(sp)
  f4:	df000515 	stw	fp,20(sp)
  f8:	df000504 	addi	fp,sp,20
  
  /*
   * Notify the operating system that we are at interrupt level.
   */ 
  
  ALT_OS_INT_ENTER();
  fc:	000d9500 	call	d950 <OSIntEnter>
#ifndef NIOS2_EIC_PRESENT
static ALT_INLINE alt_u32 ALT_ALWAYS_INLINE alt_irq_pending (void)
{
  alt_u32 active;

  NIOS2_READ_IPENDING (active);
 100:	0005313a 	rdctl	r2,ipending
 104:	e0bffc15 	stw	r2,-16(fp)

  return active;
 108:	e0bffc17 	ldw	r2,-16(fp)
   * Consider the case where the high priority interupt is asserted during
   * the interrupt entry sequence for a lower priority interrupt to see why
   * this is the case.
   */

  active = alt_irq_pending ();
 10c:	e0bfff15 	stw	r2,-4(fp)

  do
  {
    i = 0;
 110:	e03ffd15 	stw	zero,-12(fp)
    mask = 1;
 114:	00800044 	movi	r2,1
 118:	e0bffe15 	stw	r2,-8(fp)
     * called to clear the interrupt condition.
     */

    do
    {
      if (active & mask)
 11c:	e0ffff17 	ldw	r3,-4(fp)
 120:	e0bffe17 	ldw	r2,-8(fp)
 124:	1884703a 	and	r2,r3,r2
 128:	1005003a 	cmpeq	r2,r2,zero
 12c:	1000161e 	bne	r2,zero,188 <alt_irq_handler+0x9c>
      { 
#ifdef ALT_ENHANCED_INTERRUPT_API_PRESENT
        alt_irq[i].handler(alt_irq[i].context); 
 130:	e0bffd17 	ldw	r2,-12(fp)
 134:	00c002f4 	movhi	r3,11
 138:	18fce904 	addi	r3,r3,-3164
 13c:	100490fa 	slli	r2,r2,3
 140:	10c5883a 	add	r2,r2,r3
 144:	11400017 	ldw	r5,0(r2)
 148:	e0bffd17 	ldw	r2,-12(fp)
 14c:	00c002f4 	movhi	r3,11
 150:	18fce904 	addi	r3,r3,-3164
 154:	100490fa 	slli	r2,r2,3
 158:	10c5883a 	add	r2,r2,r3
 15c:	10800104 	addi	r2,r2,4
 160:	11000017 	ldw	r4,0(r2)
 164:	283ee83a 	callr	r5
#ifndef NIOS2_EIC_PRESENT
static ALT_INLINE alt_u32 ALT_ALWAYS_INLINE alt_irq_pending (void)
{
  alt_u32 active;

  NIOS2_READ_IPENDING (active);
 168:	0005313a 	rdctl	r2,ipending
 16c:	e0bffb15 	stw	r2,-20(fp)

  return active;
 170:	e0bffb17 	ldw	r2,-20(fp)
      mask <<= 1;
      i++;

    } while (1);

    active = alt_irq_pending ();
 174:	e0bfff15 	stw	r2,-4(fp)
    
  } while (active);
 178:	e0bfff17 	ldw	r2,-4(fp)
 17c:	1004c03a 	cmpne	r2,r2,zero
 180:	103fe31e 	bne	r2,zero,110 <alt_irq_handler+0x24>
 184:	00000706 	br	1a4 <alt_irq_handler+0xb8>
#else
        alt_irq[i].handler(alt_irq[i].context, i); 
#endif
        break;
      }
      mask <<= 1;
 188:	e0bffe17 	ldw	r2,-8(fp)
 18c:	1085883a 	add	r2,r2,r2
 190:	e0bffe15 	stw	r2,-8(fp)
      i++;
 194:	e0bffd17 	ldw	r2,-12(fp)
 198:	10800044 	addi	r2,r2,1
 19c:	e0bffd15 	stw	r2,-12(fp)

    } while (1);
 1a0:	003fde06 	br	11c <alt_irq_handler+0x30>

  /*
   * Notify the operating system that interrupt processing is complete.
   */ 

  ALT_OS_INT_EXIT();
 1a4:	000d9cc0 	call	d9cc <OSIntExit>
}
 1a8:	e037883a 	mov	sp,fp
 1ac:	dfc00117 	ldw	ra,4(sp)
 1b0:	df000017 	ldw	fp,0(sp)
 1b4:	dec00204 	addi	sp,sp,8
 1b8:	f800283a 	ret

Disassembly of section .text:

000001bc <_start>:

    /* Assume the data cache size is always a power of two. */
#if NIOS2_DCACHE_SIZE > 0x8000
    movhi r2, %hi(NIOS2_DCACHE_SIZE)
#else
    movui r2, NIOS2_DCACHE_SIZE
     1bc:	00820014 	movui	r2,2048
#endif

0:
    initd 0(r2)
     1c0:	10000033 	initd	0(r2)
    addi r2, r2, -NIOS2_DCACHE_LINE_SIZE
     1c4:	10bff804 	addi	r2,r2,-32
    bgt r2, zero, 0b
     1c8:	00bffd16 	blt	zero,r2,1c0 <_start+0x4>
#if (NIOS2_NUM_OF_SHADOW_REG_SETS == 0)    
    /*
     * Now that the caches are initialized, set up the stack pointer.
     * The value provided by the linker is assumed to be correctly aligned.
     */
    movhi sp, %hi(__alt_stack_pointer)
     1cc:	06c20034 	movhi	sp,2048
    ori sp, sp, %lo(__alt_stack_pointer)
     1d0:	dec00014 	ori	sp,sp,0

    /* Set up the global pointer. */
    movhi gp, %hi(_gp)
     1d4:	06800174 	movhi	gp,5
    ori gp, gp, %lo(_gp)
     1d8:	d6aacf14 	ori	gp,gp,43836
 */
#ifndef ALT_SIM_OPTIMIZE
    /* Log that the BSS is about to be cleared. */
    ALT_LOG_PUTS(alt_log_msg_bss)

    movhi r2, %hi(__bss_start)
     1dc:	00800174 	movhi	r2,5
    ori r2, r2, %lo(__bss_start)
     1e0:	10938014 	ori	r2,r2,19968

    movhi r3, %hi(__bss_end)
     1e4:	00c002b4 	movhi	r3,10
    ori r3, r3, %lo(__bss_end)
     1e8:	18fe2314 	ori	r3,r3,63628

    beq r2, r3, 1f
     1ec:	10c00326 	beq	r2,r3,1fc <_start+0x40>

0:
    stw zero, (r2)
     1f0:	10000015 	stw	zero,0(r2)
    addi r2, r2, 4
     1f4:	10800104 	addi	r2,r2,4
    bltu r2, r3, 0b
     1f8:	10fffd36 	bltu	r2,r3,1f0 <_start+0x34>
     * section aren't defined until alt_load() has been called).
     */
    mov   et, zero
#endif

    call alt_load
     1fc:	000c8fc0 	call	c8fc <alt_load>

    /* Log that alt_main is about to be called. */
    ALT_LOG_PUTS(alt_log_msg_alt_main)

    /* Call the C entry point. It should never return. */
    call alt_main
     200:	000cb380 	call	cb38 <alt_main>

00000204 <alt_after_alt_main>:

    /* Wait in infinite loop in case alt_main does return. */
alt_after_alt_main:
    br alt_after_alt_main
     204:	003fff06 	br	204 <alt_after_alt_main>

00000208 <InitADC>:
#define SenderTaskStackSize 256
static OS_STK  SenderTaskStack[SenderTaskStackSize];

void SGDMAFDone( void * context);

void InitADC(){
     208:	defffd04 	addi	sp,sp,-12
     20c:	dfc00215 	stw	ra,8(sp)
     210:	df000115 	stw	fp,4(sp)
     214:	df000104 	addi	fp,sp,4

	PDmaDevice= alt_avalon_sgdma_open (SGDMA_F_NAME);  //    system.h
     218:	01000174 	movhi	r4,5
     21c:	212bb504 	addi	r4,r4,-20780
     220:	00196080 	call	19608 <alt_avalon_sgdma_open>
     224:	d0a8b515 	stw	r2,-23852(gp)
	//       

	alt_avalon_sgdma_register_callback(PDmaDevice, &SGDMAFDone,
     228:	d128b517 	ldw	r4,-23852(gp)
     22c:	01400034 	movhi	r5,0
     230:	29409e04 	addi	r5,r5,632
     234:	01800604 	movi	r6,24
     238:	000f883a 	mov	r7,zero
     23c:	001949c0 	call	1949c <alt_avalon_sgdma_register_callback>
    		(ALTERA_AVALON_SGDMA_CONTROL_IE_CHAIN_COMPLETED_MSK | ALTERA_AVALON_SGDMA_CONTROL_IE_GLOBAL_MSK),
    		NULL);

	alt_avalon_sgdma_construct_stream_to_mem_desc(
     240:	01800174 	movhi	r6,5
     244:	31953184 	addi	r6,r6,21702
     248:	d8000015 	stw	zero,0(sp)
     24c:	0102d074 	movhi	r4,2881
     250:	212e0004 	addi	r4,r4,-18432
     254:	0142d074 	movhi	r5,2881
     258:	296e1004 	addi	r5,r5,-18368
     25c:	01c80004 	movi	r7,8192
     260:	00192e00 	call	192e0 <alt_avalon_sgdma_construct_stream_to_mem_desc>
	                                  (alt_u32*)&TransmitBuf[0],
	                                  SampleLen,         //             length_or_eop (bytes?)
	                                  0);


}
     264:	e037883a 	mov	sp,fp
     268:	dfc00117 	ldw	ra,4(sp)
     26c:	df000017 	ldw	fp,0(sp)
     270:	dec00204 	addi	sp,sp,8
     274:	f800283a 	ret

00000278 <SGDMAFDone>:
void SGDMAFDone(void *context){
     278:	defffe04 	addi	sp,sp,-8
     27c:	df000115 	stw	fp,4(sp)
     280:	df000104 	addi	fp,sp,4
     284:	e13fff15 	stw	r4,-4(fp)
	if(NRx<NSamplesBuf){
     288:	d0a8b70b 	ldhu	r2,-23844(gp)
     28c:	10bfffcc 	andi	r2,r2,65535
     290:	108002a8 	cmpgeui	r2,r2,10
     294:	1000071e 	bne	r2,zero,2b4 <SGDMAFDone+0x3c>
	    NRx++;
     298:	d0a8b70b 	ldhu	r2,-23844(gp)
     29c:	10800044 	addi	r2,r2,1
     2a0:	d0a8b70d 	sth	r2,-23844(gp)
	    PRx+=SampleLen;
     2a4:	d0a8b617 	ldw	r2,-23848(gp)
     2a8:	10880004 	addi	r2,r2,8192
     2ac:	d0a8b615 	stw	r2,-23848(gp)
     2b0:	00000406 	br	2c4 <SGDMAFDone+0x4c>
	} else{
	    NRx=0;
     2b4:	d028b70d 	sth	zero,-23844(gp)
	    PRx=TransmitBuf;
     2b8:	00800174 	movhi	r2,5
     2bc:	10953184 	addi	r2,r2,21702
     2c0:	d0a8b615 	stw	r2,-23848(gp)
	}

	NInQueue++;
     2c4:	d0a8b30b 	ldhu	r2,-23860(gp)
     2c8:	10800044 	addi	r2,r2,1
     2cc:	d0a8b30d 	sth	r2,-23860(gp)

    // "" 
    IOWR_32DIRECT(&(Desc0.write_addr), 0, PRx);
     2d0:	0102d074 	movhi	r4,2881
     2d4:	212e0204 	addi	r4,r4,-18424
     2d8:	d0a8b617 	ldw	r2,-23848(gp)
     2dc:	1007883a 	mov	r3,r2
     2e0:	2005883a 	mov	r2,r4
     2e4:	10c00035 	stwio	r3,0(r2)
    IOWR_8DIRECT(&Desc0.control,0,0x80);  //   
     2e8:	00c2d074 	movhi	r3,2881
     2ec:	18ee07c4 	addi	r3,r3,-18401
     2f0:	00802004 	movi	r2,128
     2f4:	18800025 	stbio	r2,0(r3)
    IOWR_8DIRECT(&Desc0.status,0,0x00);
     2f8:	0082d074 	movhi	r2,2881
     2fc:	10ae0784 	addi	r2,r2,-18402
     300:	10000025 	stbio	zero,0(r2)

    SGDMAFInWork=0;
     304:	d028b285 	stb	zero,-23862(gp)
}
     308:	e037883a 	mov	sp,fp
     30c:	df000017 	ldw	fp,0(sp)
     310:	dec00104 	addi	sp,sp,4
     314:	f800283a 	ret

00000318 <ADCToUDPM>:

void ADCToUDPM(int Kol){
     318:	defffb04 	addi	sp,sp,-20
     31c:	dfc00415 	stw	ra,16(sp)
     320:	df000315 	stw	fp,12(sp)
     324:	df000304 	addi	fp,sp,12
     328:	e13fff15 	stw	r4,-4(fp)
    alt_u16 ISample,IBlock;
    alt_u8 Status;

    NTx=0;
     32c:	d028b20d 	sth	zero,-23864(gp)
    NRx=0;
     330:	d028b70d 	sth	zero,-23844(gp)
    PRx=&TransmitBuf[0];
     334:	00800174 	movhi	r2,5
     338:	10953184 	addi	r2,r2,21702
     33c:	d0a8b615 	stw	r2,-23848(gp)
    PTx=&TransmitBuf[0];
     340:	00800174 	movhi	r2,5
     344:	10953184 	addi	r2,r2,21702
     348:	d0a8b415 	stw	r2,-23856(gp)
    NInQueue=0;
     34c:	d028b30d 	sth	zero,-23860(gp)
    SGDMAFInWork=0;
     350:	d028b285 	stb	zero,-23862(gp)

    //  
          // "" 
    IOWR_32DIRECT(&Desc0.write_addr, 0, PRx);
     354:	0102d074 	movhi	r4,2881
     358:	212e0204 	addi	r4,r4,-18424
     35c:	d0a8b617 	ldw	r2,-23848(gp)
     360:	1007883a 	mov	r3,r2
     364:	2005883a 	mov	r2,r4
     368:	10c00035 	stwio	r3,0(r2)
    IOWR_8DIRECT(&Desc0.control,0,0x80);  //   
     36c:	00c2d074 	movhi	r3,2881
     370:	18ee07c4 	addi	r3,r3,-18401
     374:	00802004 	movi	r2,128
     378:	18800025 	stbio	r2,0(r3)
    IOWR_8DIRECT(&Desc0.status,0,0x00);
     37c:	0082d074 	movhi	r2,2881
     380:	10ae0784 	addi	r2,r2,-18402
     384:	10000025 	stbio	zero,0(r2)
    SGDMAFInWork=1;
     388:	00800044 	movi	r2,1
     38c:	d0a8b285 	stb	r2,-23862(gp)
    Status= alt_avalon_sgdma_do_async_transfer(PDmaDevice, &Desc0);
     390:	d128b517 	ldw	r4,-23852(gp)
     394:	0142d074 	movhi	r5,2881
     398:	296e0004 	addi	r5,r5,-18432
     39c:	0018f900 	call	18f90 <alt_avalon_sgdma_do_async_transfer>
     3a0:	e0bffd05 	stb	r2,-12(fp)

//  superloop
  //  tcp_sleep(NULL);
    for(ISample=0;ISample < Kol; ISample++){     //    
     3a4:	e03ffe0d 	sth	zero,-8(fp)
     3a8:	00003806 	br	48c <ADCToUDPM+0x174>
    	// ,      
    	while(!NInQueue);
     3ac:	d0a8b30b 	ldhu	r2,-23860(gp)
     3b0:	10bfffcc 	andi	r2,r2,65535
     3b4:	1005003a 	cmpeq	r2,r2,zero
     3b8:	103ffc1e 	bne	r2,zero,3ac <ADCToUDPM+0x94>
     	//  UDP o
    	for(IBlock=0;IBlock<NUDPBloksPerSample;IBlock++){
     3bc:	e03ffd8d 	sth	zero,-10(fp)
     3c0:	00001d06 	br	438 <ADCToUDPM+0x120>
     	     //   . ,   
    	     if( (NInQueue <  NSamplesBuf)  && !SGDMAFInWork ){
     3c4:	d0a8b30b 	ldhu	r2,-23860(gp)
     3c8:	10bfffcc 	andi	r2,r2,65535
     3cc:	108002a8 	cmpgeui	r2,r2,10
     3d0:	10000b1e 	bne	r2,zero,400 <ADCToUDPM+0xe8>
     3d4:	d0a8b283 	ldbu	r2,-23862(gp)
     3d8:	10803fcc 	andi	r2,r2,255
     3dc:	1004c03a 	cmpne	r2,r2,zero
     3e0:	1000071e 	bne	r2,zero,400 <ADCToUDPM+0xe8>
                 SGDMAFInWork=1; Status= alt_avalon_sgdma_do_async_transfer(PDmaDevice, &Desc0);  //  
     3e4:	00800044 	movi	r2,1
     3e8:	d0a8b285 	stb	r2,-23862(gp)
     3ec:	d128b517 	ldw	r4,-23852(gp)
     3f0:	0142d074 	movhi	r5,2881
     3f4:	296e0004 	addi	r5,r5,-18432
     3f8:	0018f900 	call	18f90 <alt_avalon_sgdma_do_async_transfer>
     3fc:	e0bffd05 	stb	r2,-12(fp)
             }
             hack_send( ext_net, PTx, OneTransferSize );
     400:	00800174 	movhi	r2,5
     404:	10938704 	addi	r2,r2,19996
     408:	10800017 	ldw	r2,0(r2)
     40c:	1009883a 	mov	r4,r2
     410:	d0a8b417 	ldw	r2,-23856(gp)
     414:	100b883a 	mov	r5,r2
     418:	01880004 	movi	r6,8192
     41c:	00017840 	call	1784 <hack_send>
             PTx+=OneTransferSize;
     420:	d0a8b417 	ldw	r2,-23856(gp)
     424:	10880004 	addi	r2,r2,8192
     428:	d0a8b415 	stw	r2,-23856(gp)
  //  tcp_sleep(NULL);
    for(ISample=0;ISample < Kol; ISample++){     //    
    	// ,      
    	while(!NInQueue);
     	//  UDP o
    	for(IBlock=0;IBlock<NUDPBloksPerSample;IBlock++){
     42c:	e0bffd8b 	ldhu	r2,-10(fp)
     430:	10800044 	addi	r2,r2,1
     434:	e0bffd8d 	sth	r2,-10(fp)
     438:	e0bffd8b 	ldhu	r2,-10(fp)
     43c:	10800130 	cmpltui	r2,r2,4
     440:	103fe01e 	bne	r2,zero,3c4 <ADCToUDPM+0xac>
                 SGDMAFInWork=1; Status= alt_avalon_sgdma_do_async_transfer(PDmaDevice, &Desc0);  //  
             }
             hack_send( ext_net, PTx, OneTransferSize );
             PTx+=OneTransferSize;
    	}//for IBlock
        if(NTx<NSamplesBuf) {
     444:	d0a8b20b 	ldhu	r2,-23864(gp)
     448:	10bfffcc 	andi	r2,r2,65535
     44c:	108002a8 	cmpgeui	r2,r2,10
     450:	1000041e 	bne	r2,zero,464 <ADCToUDPM+0x14c>
   	        NTx++;
     454:	d0a8b20b 	ldhu	r2,-23864(gp)
     458:	10800044 	addi	r2,r2,1
     45c:	d0a8b20d 	sth	r2,-23864(gp)
     460:	00000406 	br	474 <ADCToUDPM+0x15c>
        }else {
        	NTx=0; PTx=TransmitBuf;
     464:	d028b20d 	sth	zero,-23864(gp)
     468:	00800174 	movhi	r2,5
     46c:	10953184 	addi	r2,r2,21702
     470:	d0a8b415 	stw	r2,-23856(gp)
        }
        NInQueue--;
     474:	d0a8b30b 	ldhu	r2,-23860(gp)
     478:	10bfffc4 	addi	r2,r2,-1
     47c:	d0a8b30d 	sth	r2,-23860(gp)
    SGDMAFInWork=1;
    Status= alt_avalon_sgdma_do_async_transfer(PDmaDevice, &Desc0);

//  superloop
  //  tcp_sleep(NULL);
    for(ISample=0;ISample < Kol; ISample++){     //    
     480:	e0bffe0b 	ldhu	r2,-8(fp)
     484:	10800044 	addi	r2,r2,1
     488:	e0bffe0d 	sth	r2,-8(fp)
     48c:	e0fffe0b 	ldhu	r3,-8(fp)
     490:	e0bfff17 	ldw	r2,-4(fp)
     494:	18bfc516 	blt	r3,r2,3ac <ADCToUDPM+0x94>
        	NTx=0; PTx=TransmitBuf;
        }
        NInQueue--;
	} // for ISample
  //  tcp_wakeup( NULL);
} // ADCToUDPM
     498:	e037883a 	mov	sp,fp
     49c:	dfc00117 	ldw	ra,4(sp)
     4a0:	df000017 	ldw	fp,0(sp)
     4a4:	dec00204 	addi	sp,sp,8
     4a8:	f800283a 	ret

000004ac <ADCToMem>:

void ADCToMem( alt_u32  * Buf, unsigned int Len){
     4ac:	defff804 	addi	sp,sp,-32
     4b0:	dfc00715 	stw	ra,28(sp)
     4b4:	df000615 	stw	fp,24(sp)
     4b8:	df000604 	addi	fp,sp,24
     4bc:	e13ffe15 	stw	r4,-8(fp)
     4c0:	e17fff15 	stw	r5,-4(fp)
	alt_u8 Status;
	alt_u16 BSize=BlockSize;
     4c4:	00810004 	movi	r2,1024
     4c8:	e0bffd0d 	sth	r2,-12(fp)
    int i;
    alt_u32 *CurrentAdr= Buf;
     4cc:	e0bffe17 	ldw	r2,-8(fp)
     4d0:	e0bffb15 	stw	r2,-20(fp)

    alt_avalon_sgdma_construct_stream_to_mem_desc(
     4d4:	e1fffd0b 	ldhu	r7,-12(fp)
     4d8:	d8000015 	stw	zero,0(sp)
     4dc:	0102d074 	movhi	r4,2881
     4e0:	212e0004 	addi	r4,r4,-18432
     4e4:	0142d074 	movhi	r5,2881
     4e8:	296e1004 	addi	r5,r5,-18368
     4ec:	e1bffe17 	ldw	r6,-8(fp)
     4f0:	00192e00 	call	192e0 <alt_avalon_sgdma_construct_stream_to_mem_desc>
	                                  &Desc0,
	                                  &NextDesc0,
	                                  Buf,
	                                  BSize,         //             length_or_eop (bytes?)
	                                  0);
    for(i=Len/BSize;i>0;i--){
     4f4:	e17ffd0b 	ldhu	r5,-12(fp)
     4f8:	e13fff17 	ldw	r4,-4(fp)
     4fc:	0002c8c0 	call	2c8c <__udivsi3>
     500:	e0bffc15 	stw	r2,-16(fp)
     504:	00001d06 	br	57c <ADCToMem+0xd0>
         Status= alt_avalon_sgdma_do_sync_transfer(PDmaDevice, &Desc0);
     508:	d128b517 	ldw	r4,-23852(gp)
     50c:	0142d074 	movhi	r5,2881
     510:	296e0004 	addi	r5,r5,-18432
     514:	00190cc0 	call	190cc <alt_avalon_sgdma_do_sync_transfer>
     518:	e0bffd85 	stb	r2,-10(fp)
         OS_Sched();
     51c:	000ea140 	call	ea14 <OS_Sched>
         CurrentAdr+=BSize>>2;
     520:	e0bffd0b 	ldhu	r2,-12(fp)
     524:	1004d0ba 	srli	r2,r2,2
     528:	10bfffcc 	andi	r2,r2,65535
     52c:	1085883a 	add	r2,r2,r2
     530:	1085883a 	add	r2,r2,r2
     534:	1007883a 	mov	r3,r2
     538:	e0bffb17 	ldw	r2,-20(fp)
     53c:	10c5883a 	add	r2,r2,r3
     540:	e0bffb15 	stw	r2,-20(fp)
         // "" 
         IOWR_32DIRECT(&Desc0.write_addr, 0, CurrentAdr);
     544:	0082d074 	movhi	r2,2881
     548:	10ae0204 	addi	r2,r2,-18424
     54c:	e0fffb17 	ldw	r3,-20(fp)
     550:	10c00035 	stwio	r3,0(r2)
         IOWR_8DIRECT(&Desc0.control,0,0x80);  //   
     554:	00c2d074 	movhi	r3,2881
     558:	18ee07c4 	addi	r3,r3,-18401
     55c:	00802004 	movi	r2,128
     560:	18800025 	stbio	r2,0(r3)
         IOWR_8DIRECT(&Desc0.status,0,0x00);
     564:	0082d074 	movhi	r2,2881
     568:	10ae0784 	addi	r2,r2,-18402
     56c:	10000025 	stbio	zero,0(r2)
	                                  &Desc0,
	                                  &NextDesc0,
	                                  Buf,
	                                  BSize,         //             length_or_eop (bytes?)
	                                  0);
    for(i=Len/BSize;i>0;i--){
     570:	e0bffc17 	ldw	r2,-16(fp)
     574:	10bfffc4 	addi	r2,r2,-1
     578:	e0bffc15 	stw	r2,-16(fp)
     57c:	e0bffc17 	ldw	r2,-16(fp)
     580:	10800048 	cmpgei	r2,r2,1
     584:	103fe01e 	bne	r2,zero,508 <ADCToMem+0x5c>
         // "" 
         IOWR_32DIRECT(&Desc0.write_addr, 0, CurrentAdr);
         IOWR_8DIRECT(&Desc0.control,0,0x80);  //   
         IOWR_8DIRECT(&Desc0.status,0,0x00);
     }
}
     588:	e037883a 	mov	sp,fp
     58c:	dfc00117 	ldw	ra,4(sp)
     590:	df000017 	ldw	fp,0(sp)
     594:	dec00204 	addi	sp,sp,8
     598:	f800283a 	ret

0000059c <alt_uCOSIIErrorHandler>:
#include <errno.h>
#include "includes.h"
#include "alt_error_handler.h"
 
void alt_uCOSIIErrorHandler(INT8U error_code, void *expanded_diagnosis_ptr)
{
     59c:	defff904 	addi	sp,sp,-28
     5a0:	dfc00615 	stw	ra,24(sp)
     5a4:	df000515 	stw	fp,20(sp)
     5a8:	df000504 	addi	fp,sp,20
     5ac:	e17ffd15 	stw	r5,-12(fp)
     5b0:	e13ffc05 	stb	r4,-16(fp)
   FAULT_LEVEL fault_level;
   
   if(error_code == OS_NO_ERR)
     5b4:	e0bffc03 	ldbu	r2,-16(fp)
     5b8:	1005003a 	cmpeq	r2,r2,zero
     5bc:	10017b1e 	bne	r2,zero,bac <alt_uCOSIIErrorHandler+0x610>
   {
      return;
   }
   
   fault_level = SYSTEM;  
     5c0:	00800084 	movi	r2,2
     5c4:	e0bffb15 	stw	r2,-20(fp)
   OSSchedLock();  /* Disable Task Switching but still service other IRQs */
     5c8:	000dacc0 	call	dacc <OSSchedLock>
      
   switch (error_code)
     5cc:	e0bffc03 	ldbu	r2,-16(fp)
     5d0:	e0bffe15 	stw	r2,-8(fp)
     5d4:	e0fffe17 	ldw	r3,-8(fp)
     5d8:	18800a20 	cmpeqi	r2,r3,40
     5dc:	1000371e 	bne	r2,zero,6bc <alt_uCOSIIErrorHandler+0x120>
     5e0:	e0fffe17 	ldw	r3,-8(fp)
     5e4:	18800a48 	cmpgei	r2,r3,41
     5e8:	10001a1e 	bne	r2,zero,654 <alt_uCOSIIErrorHandler+0xb8>
     5ec:	e0fffe17 	ldw	r3,-8(fp)
     5f0:	18800120 	cmpeqi	r2,r3,4
     5f4:	1000761e 	bne	r2,zero,7d0 <alt_uCOSIIErrorHandler+0x234>
     5f8:	e0fffe17 	ldw	r3,-8(fp)
     5fc:	18800148 	cmpgei	r2,r3,5
     600:	10000a1e 	bne	r2,zero,62c <alt_uCOSIIErrorHandler+0x90>
     604:	e0fffe17 	ldw	r3,-8(fp)
     608:	188000a0 	cmpeqi	r2,r3,2
     60c:	1000911e 	bne	r2,zero,854 <alt_uCOSIIErrorHandler+0x2b8>
     610:	e0fffe17 	ldw	r3,-8(fp)
     614:	188000c8 	cmpgei	r2,r3,3
     618:	1000771e 	bne	r2,zero,7f8 <alt_uCOSIIErrorHandler+0x25c>
     61c:	e0fffe17 	ldw	r3,-8(fp)
     620:	18800060 	cmpeqi	r2,r3,1
     624:	10005e1e 	bne	r2,zero,7a0 <alt_uCOSIIErrorHandler+0x204>
     628:	0000d806 	br	98c <alt_uCOSIIErrorHandler+0x3f0>
     62c:	e0fffe17 	ldw	r3,-8(fp)
     630:	18800520 	cmpeqi	r2,r3,20
     634:	10004f1e 	bne	r2,zero,774 <alt_uCOSIIErrorHandler+0x1d8>
     638:	e0fffe17 	ldw	r3,-8(fp)
     63c:	188007a0 	cmpeqi	r2,r3,30
     640:	1000ad1e 	bne	r2,zero,8f8 <alt_uCOSIIErrorHandler+0x35c>
     644:	e0fffe17 	ldw	r3,-8(fp)
     648:	188002a0 	cmpeqi	r2,r3,10
     64c:	1000761e 	bne	r2,zero,828 <alt_uCOSIIErrorHandler+0x28c>
     650:	0000ce06 	br	98c <alt_uCOSIIErrorHandler+0x3f0>
     654:	e0fffe17 	ldw	r3,-8(fp)
     658:	18801020 	cmpeqi	r2,r3,64
     65c:	10009c1e 	bne	r2,zero,8d0 <alt_uCOSIIErrorHandler+0x334>
     660:	e0fffe17 	ldw	r3,-8(fp)
     664:	18801048 	cmpgei	r2,r3,65
     668:	10000a1e 	bne	r2,zero,694 <alt_uCOSIIErrorHandler+0xf8>
     66c:	e0fffe17 	ldw	r3,-8(fp)
     670:	18800f60 	cmpeqi	r2,r3,61
     674:	10008b1e 	bne	r2,zero,8a4 <alt_uCOSIIErrorHandler+0x308>
     678:	e0fffe17 	ldw	r3,-8(fp)
     67c:	18800fa0 	cmpeqi	r2,r3,62
     680:	10007e1e 	bne	r2,zero,87c <alt_uCOSIIErrorHandler+0x2e0>
     684:	e0fffe17 	ldw	r3,-8(fp)
     688:	18800aa0 	cmpeqi	r2,r3,42
     68c:	1000151e 	bne	r2,zero,6e4 <alt_uCOSIIErrorHandler+0x148>
     690:	0000be06 	br	98c <alt_uCOSIIErrorHandler+0x3f0>
     694:	e0fffe17 	ldw	r3,-8(fp)
     698:	18801920 	cmpeqi	r2,r3,100
     69c:	1000a11e 	bne	r2,zero,924 <alt_uCOSIIErrorHandler+0x388>
     6a0:	e0fffe17 	ldw	r3,-8(fp)
     6a4:	18803fe0 	cmpeqi	r2,r3,255
     6a8:	1000aa1e 	bne	r2,zero,954 <alt_uCOSIIErrorHandler+0x3b8>
     6ac:	e0fffe17 	ldw	r3,-8(fp)
     6b0:	188010a0 	cmpeqi	r2,r3,66
     6b4:	10001d1e 	bne	r2,zero,72c <alt_uCOSIIErrorHandler+0x190>
     6b8:	0000b406 	br	98c <alt_uCOSIIErrorHandler+0x3f0>
   {  
      case OS_PRIO_EXIST:
         fprintf(stderr, "Attempted to assign task priority aready in use.\n");
     6bc:	00800174 	movhi	r2,5
     6c0:	108ad004 	addi	r2,r2,11072
     6c4:	10800017 	ldw	r2,0(r2)
     6c8:	11c00317 	ldw	r7,12(r2)
     6cc:	01000174 	movhi	r4,5
     6d0:	212bb904 	addi	r4,r4,-20764
     6d4:	01400044 	movi	r5,1
     6d8:	01800c44 	movi	r6,49
     6dc:	00032fc0 	call	32fc <fwrite>
         break;
     6e0:	0000c106 	br	9e8 <alt_uCOSIIErrorHandler+0x44c>
      case OS_PRIO_INVALID:
         fprintf(stderr, "Specified task priority higher than allowed max.\n");
     6e4:	00800174 	movhi	r2,5
     6e8:	108ad004 	addi	r2,r2,11072
     6ec:	10800017 	ldw	r2,0(r2)
     6f0:	11c00317 	ldw	r7,12(r2)
     6f4:	01000174 	movhi	r4,5
     6f8:	212bc604 	addi	r4,r4,-20712
     6fc:	01400044 	movi	r5,1
     700:	01800c44 	movi	r6,49
     704:	00032fc0 	call	32fc <fwrite>
         fprintf(stderr, "Task can't be assigned a priority higher than %d\n",
     708:	00800174 	movhi	r2,5
     70c:	108ad004 	addi	r2,r2,11072
     710:	10800017 	ldw	r2,0(r2)
     714:	11000317 	ldw	r4,12(r2)
     718:	01400174 	movhi	r5,5
     71c:	296bd304 	addi	r5,r5,-20660
     720:	01800504 	movi	r6,20
     724:	00032000 	call	3200 <fprintf>
            OS_LOWEST_PRIO);
         break;
     728:	0000af06 	br	9e8 <alt_uCOSIIErrorHandler+0x44c>
      case OS_NO_MORE_TCB:
         fprintf(stderr, "Task Control Blocks have been exhausted\n");
     72c:	00800174 	movhi	r2,5
     730:	108ad004 	addi	r2,r2,11072
     734:	10800017 	ldw	r2,0(r2)
     738:	11c00317 	ldw	r7,12(r2)
     73c:	01000174 	movhi	r4,5
     740:	212be004 	addi	r4,r4,-20608
     744:	01400044 	movi	r5,1
     748:	01800a04 	movi	r6,40
     74c:	00032fc0 	call	32fc <fwrite>
         fprintf(stderr, "Current max number of tasks is %d\n",OS_MAX_TASKS);
     750:	00800174 	movhi	r2,5
     754:	108ad004 	addi	r2,r2,11072
     758:	10800017 	ldw	r2,0(r2)
     75c:	11000317 	ldw	r4,12(r2)
     760:	01400174 	movhi	r5,5
     764:	296beb04 	addi	r5,r5,-20564
     768:	01800284 	movi	r6,10
     76c:	00032000 	call	3200 <fprintf>
         break;
     770:	00009d06 	br	9e8 <alt_uCOSIIErrorHandler+0x44c>
      case OS_MBOX_FULL:
         fault_level = NONE;
     774:	e03ffb15 	stw	zero,-20(fp)
         fprintf(stderr, "Attempted Post to Mailbox already holding message\n");
     778:	00800174 	movhi	r2,5
     77c:	108ad004 	addi	r2,r2,11072
     780:	10800017 	ldw	r2,0(r2)
     784:	11c00317 	ldw	r7,12(r2)
     788:	01000174 	movhi	r4,5
     78c:	212bf404 	addi	r4,r4,-20528
     790:	01400044 	movi	r5,1
     794:	01800c84 	movi	r6,50
     798:	00032fc0 	call	32fc <fwrite>
         break;
     79c:	00009206 	br	9e8 <alt_uCOSIIErrorHandler+0x44c>
      case OS_ERR_EVENT_TYPE:
         fault_level = TASK;
     7a0:	00800044 	movi	r2,1
     7a4:	e0bffb15 	stw	r2,-20(fp)
         fprintf(stderr, 
     7a8:	00800174 	movhi	r2,5
     7ac:	108ad004 	addi	r2,r2,11072
     7b0:	10800017 	ldw	r2,0(r2)
     7b4:	11c00317 	ldw	r7,12(r2)
     7b8:	01000174 	movhi	r4,5
     7bc:	212c0104 	addi	r4,r4,-20476
     7c0:	01400044 	movi	r5,1
     7c4:	01801244 	movi	r6,73
     7c8:	00032fc0 	call	32fc <fwrite>
"Attempted to access a resource with no match for the required data type.\n");
         break;
     7cc:	00008606 	br	9e8 <alt_uCOSIIErrorHandler+0x44c>
      case OS_ERR_PEVENT_NULL:
         fprintf(stderr, "Attempting to access a resource pointing to NULL\n");
     7d0:	00800174 	movhi	r2,5
     7d4:	108ad004 	addi	r2,r2,11072
     7d8:	10800017 	ldw	r2,0(r2)
     7dc:	11c00317 	ldw	r7,12(r2)
     7e0:	01000174 	movhi	r4,5
     7e4:	212c1404 	addi	r4,r4,-20400
     7e8:	01400044 	movi	r5,1
     7ec:	01800c44 	movi	r6,49
     7f0:	00032fc0 	call	32fc <fwrite>
         break;
     7f4:	00007c06 	br	9e8 <alt_uCOSIIErrorHandler+0x44c>
      case OS_ERR_POST_NULL_PTR:
         fault_level = TASK;
     7f8:	00800044 	movi	r2,1
     7fc:	e0bffb15 	stw	r2,-20(fp)
         fprintf(stderr, "Attempted to Post a NULL to a resource. \n");
     800:	00800174 	movhi	r2,5
     804:	108ad004 	addi	r2,r2,11072
     808:	10800017 	ldw	r2,0(r2)
     80c:	11c00317 	ldw	r7,12(r2)
     810:	01000174 	movhi	r4,5
     814:	212c2104 	addi	r4,r4,-20348
     818:	01400044 	movi	r5,1
     81c:	01800a44 	movi	r6,41
     820:	00032fc0 	call	32fc <fwrite>
         break;
     824:	00007006 	br	9e8 <alt_uCOSIIErrorHandler+0x44c>
      case OS_TIMEOUT:
         fault_level = NONE;
     828:	e03ffb15 	stw	zero,-20(fp)
         fprintf(stderr, "Resource not received in specified time\n");
     82c:	00800174 	movhi	r2,5
     830:	108ad004 	addi	r2,r2,11072
     834:	10800017 	ldw	r2,0(r2)
     838:	11c00317 	ldw	r7,12(r2)
     83c:	01000174 	movhi	r4,5
     840:	212c2c04 	addi	r4,r4,-20304
     844:	01400044 	movi	r5,1
     848:	01800a04 	movi	r6,40
     84c:	00032fc0 	call	32fc <fwrite>
         break;
     850:	00006506 	br	9e8 <alt_uCOSIIErrorHandler+0x44c>
      case OS_ERR_PEND_ISR:
         fprintf(stderr, "Attempting to pend for a resource in an ISR\n");
     854:	00800174 	movhi	r2,5
     858:	108ad004 	addi	r2,r2,11072
     85c:	10800017 	ldw	r2,0(r2)
     860:	11c00317 	ldw	r7,12(r2)
     864:	01000174 	movhi	r4,5
     868:	212c3704 	addi	r4,r4,-20260
     86c:	01400044 	movi	r5,1
     870:	01800b04 	movi	r6,44
     874:	00032fc0 	call	32fc <fwrite>
         break;
     878:	00005b06 	br	9e8 <alt_uCOSIIErrorHandler+0x44c>
      case OS_TASK_DEL_IDLE:
         fprintf(stderr, "Attempted to delete the IDLE task\n");
     87c:	00800174 	movhi	r2,5
     880:	108ad004 	addi	r2,r2,11072
     884:	10800017 	ldw	r2,0(r2)
     888:	11c00317 	ldw	r7,12(r2)
     88c:	01000174 	movhi	r4,5
     890:	212c4304 	addi	r4,r4,-20212
     894:	01400044 	movi	r5,1
     898:	01800884 	movi	r6,34
     89c:	00032fc0 	call	32fc <fwrite>
         break;
     8a0:	00005106 	br	9e8 <alt_uCOSIIErrorHandler+0x44c>
      case OS_TASK_DEL_ERR:
         fault_level = NONE;
     8a4:	e03ffb15 	stw	zero,-20(fp)
         fprintf(stderr, "Attempted to delete a task that does not exist\n");
     8a8:	00800174 	movhi	r2,5
     8ac:	108ad004 	addi	r2,r2,11072
     8b0:	10800017 	ldw	r2,0(r2)
     8b4:	11c00317 	ldw	r7,12(r2)
     8b8:	01000174 	movhi	r4,5
     8bc:	212c4c04 	addi	r4,r4,-20176
     8c0:	01400044 	movi	r5,1
     8c4:	01800bc4 	movi	r6,47
     8c8:	00032fc0 	call	32fc <fwrite>
         break;
     8cc:	00004606 	br	9e8 <alt_uCOSIIErrorHandler+0x44c>
      case OS_TASK_DEL_ISR:
         fprintf(stderr, "Attempted to delete a task from an ISR\n");
     8d0:	00800174 	movhi	r2,5
     8d4:	108ad004 	addi	r2,r2,11072
     8d8:	10800017 	ldw	r2,0(r2)
     8dc:	11c00317 	ldw	r7,12(r2)
     8e0:	01000174 	movhi	r4,5
     8e4:	212c5804 	addi	r4,r4,-20128
     8e8:	01400044 	movi	r5,1
     8ec:	018009c4 	movi	r6,39
     8f0:	00032fc0 	call	32fc <fwrite>
         break;
     8f4:	00003c06 	br	9e8 <alt_uCOSIIErrorHandler+0x44c>
      case OS_Q_FULL:
         fault_level = NONE;
     8f8:	e03ffb15 	stw	zero,-20(fp)
         fprintf(stderr, "Attempted to post to a full message queue\n");
     8fc:	00800174 	movhi	r2,5
     900:	108ad004 	addi	r2,r2,11072
     904:	10800017 	ldw	r2,0(r2)
     908:	11c00317 	ldw	r7,12(r2)
     90c:	01000174 	movhi	r4,5
     910:	212c6204 	addi	r4,r4,-20088
     914:	01400044 	movi	r5,1
     918:	01800a84 	movi	r6,42
     91c:	00032fc0 	call	32fc <fwrite>
         break;
     920:	00003106 	br	9e8 <alt_uCOSIIErrorHandler+0x44c>
      case OS_ERR_NOT_MUTEX_OWNER:
         fault_level = TASK;
     924:	00800044 	movi	r2,1
     928:	e0bffb15 	stw	r2,-20(fp)
         fprintf(stderr, "Attempted to post a mutex not owned by the task\n");
     92c:	00800174 	movhi	r2,5
     930:	108ad004 	addi	r2,r2,11072
     934:	10800017 	ldw	r2,0(r2)
     938:	11c00317 	ldw	r7,12(r2)
     93c:	01000174 	movhi	r4,5
     940:	212c6d04 	addi	r4,r4,-20044
     944:	01400044 	movi	r5,1
     948:	01800c04 	movi	r6,48
     94c:	00032fc0 	call	32fc <fwrite>
         break;
     950:	00002506 	br	9e8 <alt_uCOSIIErrorHandler+0x44c>
      case EXPANDED_DIAGNOSIS_CODE:      
         fault_level = SYSTEM;
     954:	00800084 	movi	r2,2
     958:	e0bffb15 	stw	r2,-20(fp)
         printf(
     95c:	01000174 	movhi	r4,5
     960:	212c7a04 	addi	r4,r4,-19992
     964:	00034540 	call	3454 <printf>
"\n[MicroC/OS-II]: See STDERR for expanded diagnosis translation.");    
         fprintf(stderr, "\n[MicroC/OS-II]: Expanded Diagnosis: %s.", 
     968:	00800174 	movhi	r2,5
     96c:	108ad004 	addi	r2,r2,11072
     970:	10800017 	ldw	r2,0(r2)
     974:	11000317 	ldw	r4,12(r2)
     978:	e1bffd17 	ldw	r6,-12(fp)
     97c:	01400174 	movhi	r5,5
     980:	296c8a04 	addi	r5,r5,-19928
     984:	00032000 	call	3200 <fprintf>
                 (char *)expanded_diagnosis_ptr);
         break;           
     988:	00001706 	br	9e8 <alt_uCOSIIErrorHandler+0x44c>
      default:
         printf("\n[MicroC/OS-II]: (Not a MicroC/OS-II error) See STDERR.\n");    
     98c:	01000174 	movhi	r4,5
     990:	212c9504 	addi	r4,r4,-19884
     994:	000356c0 	call	356c <puts>
         fprintf(stderr, "\n[MicroC/OS-II]:");
     998:	00800174 	movhi	r2,5
     99c:	108ad004 	addi	r2,r2,11072
     9a0:	10800017 	ldw	r2,0(r2)
     9a4:	11c00317 	ldw	r7,12(r2)
     9a8:	01000174 	movhi	r4,5
     9ac:	212ca304 	addi	r4,r4,-19828
     9b0:	01400044 	movi	r5,1
     9b4:	01800404 	movi	r6,16
     9b8:	00032fc0 	call	32fc <fwrite>
         fprintf(stderr, "\nError_code %d.\n", error_code);
     9bc:	00800174 	movhi	r2,5
     9c0:	108ad004 	addi	r2,r2,11072
     9c4:	10800017 	ldw	r2,0(r2)
     9c8:	11000317 	ldw	r4,12(r2)
     9cc:	e1bffc03 	ldbu	r6,-16(fp)
     9d0:	01400174 	movhi	r5,5
     9d4:	296ca804 	addi	r5,r5,-19808
     9d8:	00032000 	call	3200 <fprintf>
         perror("\n[MicroC/OS-II]: (Not a MicroC/OS-II error), ERRNO: ");
     9dc:	01000174 	movhi	r4,5
     9e0:	212cad04 	addi	r4,r4,-19788
     9e4:	00034400 	call	3440 <perror>

   }

   /* Process the error based on the fault level, 
    * reenable scheduler if appropriate. */  
   switch (fault_level) {
     9e8:	e0bffb17 	ldw	r2,-20(fp)
     9ec:	e0bfff15 	stw	r2,-4(fp)
     9f0:	e0ffff17 	ldw	r3,-4(fp)
     9f4:	18800060 	cmpeqi	r2,r3,1
     9f8:	1000071e 	bne	r2,zero,a18 <alt_uCOSIIErrorHandler+0x47c>
     9fc:	e0ffff17 	ldw	r3,-4(fp)
     a00:	18800070 	cmpltui	r2,r3,1
     a04:	10003f1e 	bne	r2,zero,b04 <alt_uCOSIIErrorHandler+0x568>
     a08:	e0ffff17 	ldw	r3,-4(fp)
     a0c:	188000a0 	cmpeqi	r2,r3,2
     a10:	10001d1e 	bne	r2,zero,a88 <alt_uCOSIIErrorHandler+0x4ec>
     a14:	00005806 	br	b78 <alt_uCOSIIErrorHandler+0x5dc>
      case TASK:
         /* Error can be isolated by killing the task */
         printf("\n[MicroC/OS-II]: See STDERR (FAULT_LEVEL is TASK).");
     a18:	01000174 	movhi	r4,5
     a1c:	212cbb04 	addi	r4,r4,-19732
     a20:	00034540 	call	3454 <printf>
         fprintf(stderr, "\n[MicroC/OS-II]: FAULT_LEVEL is TASK");
     a24:	00800174 	movhi	r2,5
     a28:	108ad004 	addi	r2,r2,11072
     a2c:	10800017 	ldw	r2,0(r2)
     a30:	11c00317 	ldw	r7,12(r2)
     a34:	01000174 	movhi	r4,5
     a38:	212cc804 	addi	r4,r4,-19680
     a3c:	01400044 	movi	r5,1
     a40:	01800904 	movi	r6,36
     a44:	00032fc0 	call	32fc <fwrite>
         fprintf(stderr, "\n[MicroC/OS-II]: Task is being deleted.\n");
     a48:	00800174 	movhi	r2,5
     a4c:	108ad004 	addi	r2,r2,11072
     a50:	10800017 	ldw	r2,0(r2)
     a54:	11c00317 	ldw	r7,12(r2)
     a58:	01000174 	movhi	r4,5
     a5c:	212cd204 	addi	r4,r4,-19640
     a60:	01400044 	movi	r5,1
     a64:	01800a04 	movi	r6,40
     a68:	00032fc0 	call	32fc <fwrite>
         OSSchedUnlock(); /* Reenable Task Switching */
     a6c:	000db580 	call	db58 <OSSchedUnlock>
         OSTaskDel(OS_PRIO_SELF);
     a70:	01003fc4 	movi	r4,255
     a74:	0013c100 	call	13c10 <OSTaskDel>
         /* Reinvoke uCOSII error handler in case task deletion fails, in 
          * which case fault_level for this secondary error will be SYSTEM. */
         alt_uCOSIIErrorHandler(error_code, 0);         
     a78:	e13ffc03 	ldbu	r4,-16(fp)
     a7c:	000b883a 	mov	r5,zero
     a80:	000059c0 	call	59c <alt_uCOSIIErrorHandler>
         break;
     a84:	00004806 	br	ba8 <alt_uCOSIIErrorHandler+0x60c>
      case SYSTEM:
         /* Total System Failure, Restart Required */
         printf("\n[MicroC/OS-II]: See STDERR (FAULT_LEVEL is SYSTEM).");    
     a88:	01000174 	movhi	r4,5
     a8c:	212cdd04 	addi	r4,r4,-19596
     a90:	00034540 	call	3454 <printf>
         fprintf(stderr, "\n[MicroC/OS-II]: FAULT_LEVEL is SYSTEM");
     a94:	00800174 	movhi	r2,5
     a98:	108ad004 	addi	r2,r2,11072
     a9c:	10800017 	ldw	r2,0(r2)
     aa0:	11c00317 	ldw	r7,12(r2)
     aa4:	01000174 	movhi	r4,5
     aa8:	212ceb04 	addi	r4,r4,-19540
     aac:	01400044 	movi	r5,1
     ab0:	01800984 	movi	r6,38
     ab4:	00032fc0 	call	32fc <fwrite>
         fprintf(stderr, "\n[MicroC/OS-II]: FATAL Error, Restart required.");
     ab8:	00800174 	movhi	r2,5
     abc:	108ad004 	addi	r2,r2,11072
     ac0:	10800017 	ldw	r2,0(r2)
     ac4:	11c00317 	ldw	r7,12(r2)
     ac8:	01000174 	movhi	r4,5
     acc:	212cf504 	addi	r4,r4,-19500
     ad0:	01400044 	movi	r5,1
     ad4:	01800bc4 	movi	r6,47
     ad8:	00032fc0 	call	32fc <fwrite>
         fprintf(stderr, "\n[MicroC/OS-II]: Locking scheduler - endless loop.\n");
     adc:	00800174 	movhi	r2,5
     ae0:	108ad004 	addi	r2,r2,11072
     ae4:	10800017 	ldw	r2,0(r2)
     ae8:	11c00317 	ldw	r7,12(r2)
     aec:	01000174 	movhi	r4,5
     af0:	212d0104 	addi	r4,r4,-19452
     af4:	01400044 	movi	r5,1
     af8:	01800cc4 	movi	r6,51
     afc:	00032fc0 	call	32fc <fwrite>
         while(1); /* Since scheduler is locked,loop halts all task activity.*/
     b00:	003fff06 	br	b00 <alt_uCOSIIErrorHandler+0x564>
         break;
      case NONE:
         fprintf(stderr, "\n[MicroC/OS-II]: FAULT_LEVEL is NONE");
     b04:	00800174 	movhi	r2,5
     b08:	108ad004 	addi	r2,r2,11072
     b0c:	10800017 	ldw	r2,0(r2)
     b10:	11c00317 	ldw	r7,12(r2)
     b14:	01000174 	movhi	r4,5
     b18:	212d0e04 	addi	r4,r4,-19400
     b1c:	01400044 	movi	r5,1
     b20:	01800904 	movi	r6,36
     b24:	00032fc0 	call	32fc <fwrite>
         fprintf(stderr, "\n[MicroC/OS-II]: Informational error only, control"); 
     b28:	00800174 	movhi	r2,5
     b2c:	108ad004 	addi	r2,r2,11072
     b30:	10800017 	ldw	r2,0(r2)
     b34:	11c00317 	ldw	r7,12(r2)
     b38:	01000174 	movhi	r4,5
     b3c:	212d1804 	addi	r4,r4,-19360
     b40:	01400044 	movi	r5,1
     b44:	01800c84 	movi	r6,50
     b48:	00032fc0 	call	32fc <fwrite>
         fprintf(stderr, 
     b4c:	00800174 	movhi	r2,5
     b50:	108ad004 	addi	r2,r2,11072
     b54:	10800017 	ldw	r2,0(r2)
     b58:	11c00317 	ldw	r7,12(r2)
     b5c:	01000174 	movhi	r4,5
     b60:	212d2504 	addi	r4,r4,-19308
     b64:	01400044 	movi	r5,1
     b68:	01800f84 	movi	r6,62
     b6c:	00032fc0 	call	32fc <fwrite>
            "returned to task to complete processing at application level.\n");
         OSSchedUnlock(); /* Reenable Task Switching */
     b70:	000db580 	call	db58 <OSSchedUnlock>
         return;   
     b74:	00000d06 	br	bac <alt_uCOSIIErrorHandler+0x610>
         break;      
      default:
         printf("\n[MicroC/OS-II]: See STDERR (FAULT_LEVEL is Unknown).\n");
     b78:	01000174 	movhi	r4,5
     b7c:	212d3504 	addi	r4,r4,-19244
     b80:	000356c0 	call	356c <puts>
         fprintf(stderr, "\n[MicroC/OS-II]: FAULT_LEVEL is unknown!?!\n");
     b84:	00800174 	movhi	r2,5
     b88:	108ad004 	addi	r2,r2,11072
     b8c:	10800017 	ldw	r2,0(r2)
     b90:	11c00317 	ldw	r7,12(r2)
     b94:	01000174 	movhi	r4,5
     b98:	212d4304 	addi	r4,r4,-19188
     b9c:	01400044 	movi	r5,1
     ba0:	01800ac4 	movi	r6,43
     ba4:	00032fc0 	call	32fc <fwrite>
   }
   while(1); /* Correct Program Flow never gets here. */
     ba8:	003fff06 	br	ba8 <alt_uCOSIIErrorHandler+0x60c>
}
     bac:	e037883a 	mov	sp,fp
     bb0:	dfc00117 	ldw	ra,4(sp)
     bb4:	df000017 	ldw	fp,0(sp)
     bb8:	dec00204 	addi	sp,sp,8
     bbc:	f800283a 	ret

00000bc0 <alt_NetworkErrorHandler>:

void alt_NetworkErrorHandler(INT8U error_code, void *expanded_diagnosis_ptr)
{
     bc0:	defffa04 	addi	sp,sp,-24
     bc4:	dfc00515 	stw	ra,20(sp)
     bc8:	df000415 	stw	fp,16(sp)
     bcc:	df000404 	addi	fp,sp,16
     bd0:	e17ffe15 	stw	r5,-8(fp)
     bd4:	e13ffd05 	stb	r4,-12(fp)
   FAULT_LEVEL fault_level;

   if(error_code == OS_NO_ERR)
     bd8:	e0bffd03 	ldbu	r2,-12(fp)
     bdc:	1005003a 	cmpeq	r2,r2,zero
     be0:	1000981e 	bne	r2,zero,e44 <alt_NetworkErrorHandler+0x284>
   {
      return;
   }

   fault_level = SYSTEM;   
     be4:	00800084 	movi	r2,2
     be8:	e0bffc15 	stw	r2,-16(fp)
   OSSchedLock();  /* Disable Task Switching but still service other IRQs */  
     bec:	000dacc0 	call	dacc <OSSchedLock>

   if (error_code == EXPANDED_DIAGNOSIS_CODE) 
     bf0:	e0bffd03 	ldbu	r2,-12(fp)
     bf4:	10803fd8 	cmpnei	r2,r2,255
     bf8:	1000111e 	bne	r2,zero,c40 <alt_NetworkErrorHandler+0x80>
   {
      fault_level = SYSTEM;
     bfc:	00800084 	movi	r2,2
     c00:	e0bffc15 	stw	r2,-16(fp)
      printf("\n[Network]: See STDERR for expanded diagnosis translation.");    
     c04:	01000174 	movhi	r4,5
     c08:	212d4e04 	addi	r4,r4,-19144
     c0c:	00034540 	call	3454 <printf>
      fprintf(stderr, "\n[Network]: %s", (char *)expanded_diagnosis_ptr);
     c10:	00800174 	movhi	r2,5
     c14:	108ad004 	addi	r2,r2,11072
     c18:	10800017 	ldw	r2,0(r2)
     c1c:	11000317 	ldw	r4,12(r2)
     c20:	e1bffe17 	ldw	r6,-8(fp)
     c24:	01400174 	movhi	r5,5
     c28:	296d5d04 	addi	r5,r5,-19084
     c2c:	00032000 	call	3200 <fprintf>
      /* Check errno also in case it has been set. */
      perror("\n[Network]:  ERRNO: ");
     c30:	01000174 	movhi	r4,5
     c34:	212d6104 	addi	r4,r4,-19068
     c38:	00034400 	call	3440 <perror>
     c3c:	00001006 	br	c80 <alt_NetworkErrorHandler+0xc0>
   }
   else 
   {
      fault_level = TASK;
     c40:	00800044 	movi	r2,1
     c44:	e0bffc15 	stw	r2,-16(fp)
      printf("\n[Network]: See STDERR.\n");    
     c48:	01000174 	movhi	r4,5
     c4c:	212d6704 	addi	r4,r4,-19044
     c50:	000356c0 	call	356c <puts>
      fprintf(stderr, "\n[Network]: Error_code %d!\n", error_code);        
     c54:	00800174 	movhi	r2,5
     c58:	108ad004 	addi	r2,r2,11072
     c5c:	10800017 	ldw	r2,0(r2)
     c60:	11000317 	ldw	r4,12(r2)
     c64:	e1bffd03 	ldbu	r6,-12(fp)
     c68:	01400174 	movhi	r5,5
     c6c:	296d6d04 	addi	r5,r5,-19020
     c70:	00032000 	call	3200 <fprintf>
      perror("\n[Network]:  ERRNO: ");
     c74:	01000174 	movhi	r4,5
     c78:	212d6104 	addi	r4,r4,-19068
     c7c:	00034400 	call	3440 <perror>
   }

   /* Process error based on fault level, reenable scheduler if appropriate. */     
   switch (fault_level) 
     c80:	e0bffc17 	ldw	r2,-16(fp)
     c84:	e0bfff15 	stw	r2,-4(fp)
     c88:	e0ffff17 	ldw	r3,-4(fp)
     c8c:	18800060 	cmpeqi	r2,r3,1
     c90:	1000071e 	bne	r2,zero,cb0 <alt_NetworkErrorHandler+0xf0>
     c94:	e0ffff17 	ldw	r3,-4(fp)
     c98:	18800070 	cmpltui	r2,r3,1
     c9c:	10003f1e 	bne	r2,zero,d9c <alt_NetworkErrorHandler+0x1dc>
     ca0:	e0ffff17 	ldw	r3,-4(fp)
     ca4:	188000a0 	cmpeqi	r2,r3,2
     ca8:	10001d1e 	bne	r2,zero,d20 <alt_NetworkErrorHandler+0x160>
     cac:	00005806 	br	e10 <alt_NetworkErrorHandler+0x250>
   {
      case TASK:
         /* Error can be isolated by killing the task */
         printf("\n[Network]: See STDERR (FAULT_LEVEL is TASK).");
     cb0:	01000174 	movhi	r4,5
     cb4:	212d7404 	addi	r4,r4,-18992
     cb8:	00034540 	call	3454 <printf>
         fprintf(stderr, "\n[Network]: FAULT_LEVEL is TASK");
     cbc:	00800174 	movhi	r2,5
     cc0:	108ad004 	addi	r2,r2,11072
     cc4:	10800017 	ldw	r2,0(r2)
     cc8:	11c00317 	ldw	r7,12(r2)
     ccc:	01000174 	movhi	r4,5
     cd0:	212d8004 	addi	r4,r4,-18944
     cd4:	01400044 	movi	r5,1
     cd8:	018007c4 	movi	r6,31
     cdc:	00032fc0 	call	32fc <fwrite>
         fprintf(stderr, "\n[Network]: Task is being deleted.\n");
     ce0:	00800174 	movhi	r2,5
     ce4:	108ad004 	addi	r2,r2,11072
     ce8:	10800017 	ldw	r2,0(r2)
     cec:	11c00317 	ldw	r7,12(r2)
     cf0:	01000174 	movhi	r4,5
     cf4:	212d8804 	addi	r4,r4,-18912
     cf8:	01400044 	movi	r5,1
     cfc:	018008c4 	movi	r6,35
     d00:	00032fc0 	call	32fc <fwrite>
         OSSchedUnlock(); /* Reenable Task Switching */
     d04:	000db580 	call	db58 <OSSchedUnlock>
         OSTaskDel(OS_PRIO_SELF);
     d08:	01003fc4 	movi	r4,255
     d0c:	0013c100 	call	13c10 <OSTaskDel>
         /* Reinvoke uCOSII error handler in case task deletion fails, in 
          * which case fault_level for this secondary error will be SYSTEM. */
         alt_uCOSIIErrorHandler(error_code, 0);         
     d10:	e13ffd03 	ldbu	r4,-12(fp)
     d14:	000b883a 	mov	r5,zero
     d18:	000059c0 	call	59c <alt_uCOSIIErrorHandler>
         break;
     d1c:	00004806 	br	e40 <alt_NetworkErrorHandler+0x280>
      case SYSTEM:
         /* Total System Failure, Restart Required */
         printf("\n[Network]: See STDERR (FAULT_LEVEL is SYSTEM).");    
     d20:	01000174 	movhi	r4,5
     d24:	212d9104 	addi	r4,r4,-18876
     d28:	00034540 	call	3454 <printf>
         fprintf(stderr, "\n[Network]: FAULT_LEVEL is SYSTEM.");
     d2c:	00800174 	movhi	r2,5
     d30:	108ad004 	addi	r2,r2,11072
     d34:	10800017 	ldw	r2,0(r2)
     d38:	11c00317 	ldw	r7,12(r2)
     d3c:	01000174 	movhi	r4,5
     d40:	212d9d04 	addi	r4,r4,-18828
     d44:	01400044 	movi	r5,1
     d48:	01800884 	movi	r6,34
     d4c:	00032fc0 	call	32fc <fwrite>
         fprintf(stderr, "\n[Network]: FATAL Error, Restart required.");
     d50:	00800174 	movhi	r2,5
     d54:	108ad004 	addi	r2,r2,11072
     d58:	10800017 	ldw	r2,0(r2)
     d5c:	11c00317 	ldw	r7,12(r2)
     d60:	01000174 	movhi	r4,5
     d64:	212da604 	addi	r4,r4,-18792
     d68:	01400044 	movi	r5,1
     d6c:	01800a84 	movi	r6,42
     d70:	00032fc0 	call	32fc <fwrite>
         fprintf(stderr, "\n[Network]: Locking scheduler - endless loop.\n");
     d74:	00800174 	movhi	r2,5
     d78:	108ad004 	addi	r2,r2,11072
     d7c:	10800017 	ldw	r2,0(r2)
     d80:	11c00317 	ldw	r7,12(r2)
     d84:	01000174 	movhi	r4,5
     d88:	212db104 	addi	r4,r4,-18748
     d8c:	01400044 	movi	r5,1
     d90:	01800b84 	movi	r6,46
     d94:	00032fc0 	call	32fc <fwrite>
         while(1); /* Since scheduler is locked, loop halts all task activity.*/
     d98:	003fff06 	br	d98 <alt_NetworkErrorHandler+0x1d8>
         break;
      case NONE:
         fprintf(stderr, "\n[Network]: FAULT_LEVEL is NONE.");
     d9c:	00800174 	movhi	r2,5
     da0:	108ad004 	addi	r2,r2,11072
     da4:	10800017 	ldw	r2,0(r2)
     da8:	11c00317 	ldw	r7,12(r2)
     dac:	01000174 	movhi	r4,5
     db0:	212dbd04 	addi	r4,r4,-18700
     db4:	01400044 	movi	r5,1
     db8:	01800804 	movi	r6,32
     dbc:	00032fc0 	call	32fc <fwrite>
         fprintf(stderr, "\n[Network]: Informational "
     dc0:	00800174 	movhi	r2,5
     dc4:	108ad004 	addi	r2,r2,11072
     dc8:	10800017 	ldw	r2,0(r2)
     dcc:	11c00317 	ldw	r7,12(r2)
     dd0:	01000174 	movhi	r4,5
     dd4:	212dc604 	addi	r4,r4,-18664
     dd8:	01400044 	movi	r5,1
     ddc:	01800d84 	movi	r6,54
     de0:	00032fc0 	call	32fc <fwrite>
                         "error only, control returned");
         fprintf(stderr, 
     de4:	00800174 	movhi	r2,5
     de8:	108ad004 	addi	r2,r2,11072
     dec:	10800017 	ldw	r2,0(r2)
     df0:	11c00317 	ldw	r7,12(r2)
     df4:	01000174 	movhi	r4,5
     df8:	212dd404 	addi	r4,r4,-18608
     dfc:	01400044 	movi	r5,1
     e00:	01800e44 	movi	r6,57
     e04:	00032fc0 	call	32fc <fwrite>
            "to task to complete processing at the application level.\n");
         OSSchedUnlock(); /* Reenable Task Switching */ 
     e08:	000db580 	call	db58 <OSSchedUnlock>
         return;
     e0c:	00000d06 	br	e44 <alt_NetworkErrorHandler+0x284>
         break;         
      default:
         printf("\n[Network]: See STDERR (FAULT_LEVEL is unknown).\n");    
     e10:	01000174 	movhi	r4,5
     e14:	212de304 	addi	r4,r4,-18548
     e18:	000356c0 	call	356c <puts>
         fprintf(stderr, "\n[Network] FAULT_LEVEL is unknown !?!\n");
     e1c:	00800174 	movhi	r2,5
     e20:	108ad004 	addi	r2,r2,11072
     e24:	10800017 	ldw	r2,0(r2)
     e28:	11c00317 	ldw	r7,12(r2)
     e2c:	01000174 	movhi	r4,5
     e30:	212df004 	addi	r4,r4,-18496
     e34:	01400044 	movi	r5,1
     e38:	01800984 	movi	r6,38
     e3c:	00032fc0 	call	32fc <fwrite>
   }
   while(1); /* Correct Program Flow never gets here. */
     e40:	003fff06 	br	e40 <alt_NetworkErrorHandler+0x280>
}
     e44:	e037883a 	mov	sp,fp
     e48:	dfc00117 	ldw	ra,4(sp)
     e4c:	df000017 	ldw	fp,0(sp)
     e50:	dec00204 	addi	sp,sp,8
     e54:	f800283a 	ret

00000e58 <alt_SSSErrorHandler>:
   
   
void alt_SSSErrorHandler(INT8U error_code, 
                         void *expanded_diagnosis_ptr)
{
     e58:	defff804 	addi	sp,sp,-32
     e5c:	dfc00715 	stw	ra,28(sp)
     e60:	df000615 	stw	fp,24(sp)
     e64:	df000604 	addi	fp,sp,24
     e68:	e17ffc15 	stw	r5,-16(fp)
     e6c:	e13ffb05 	stb	r4,-20(fp)
   FAULT_LEVEL fault_level;
   
   if   (error_code == OS_NO_ERR)
     e70:	e0bffb03 	ldbu	r2,-20(fp)
     e74:	1005003a 	cmpeq	r2,r2,zero
     e78:	1000ad1e 	bne	r2,zero,1130 <alt_SSSErrorHandler+0x2d8>
   {
      return;
   }

   fault_level = (error_code == OS_NO_ERR) ? NONE : SYSTEM;
     e7c:	e0bffb03 	ldbu	r2,-20(fp)
     e80:	1004c03a 	cmpne	r2,r2,zero
     e84:	1000021e 	bne	r2,zero,e90 <alt_SSSErrorHandler+0x38>
     e88:	e03ffe15 	stw	zero,-8(fp)
     e8c:	00000206 	br	e98 <alt_SSSErrorHandler+0x40>
     e90:	00800084 	movi	r2,2
     e94:	e0bffe15 	stw	r2,-8(fp)
     e98:	e0fffe17 	ldw	r3,-8(fp)
     e9c:	e0fffa15 	stw	r3,-24(fp)
   
   OSSchedLock();  /* Disable Task Switching but still service other IRQs */
     ea0:	000dacc0 	call	dacc <OSSchedLock>
   switch (error_code)
     ea4:	e0bffb03 	ldbu	r2,-20(fp)
     ea8:	e0bffd15 	stw	r2,-12(fp)
     eac:	e0fffd17 	ldw	r3,-12(fp)
     eb0:	188007a0 	cmpeqi	r2,r3,30
     eb4:	1000121e 	bne	r2,zero,f00 <alt_SSSErrorHandler+0xa8>
     eb8:	e0fffd17 	ldw	r3,-12(fp)
     ebc:	18803fe0 	cmpeqi	r2,r3,255
     ec0:	1000011e 	bne	r2,zero,ec8 <alt_SSSErrorHandler+0x70>
     ec4:	00001906 	br	f2c <alt_SSSErrorHandler+0xd4>
   {
      case EXPANDED_DIAGNOSIS_CODE:      
         fault_level = SYSTEM;
     ec8:	00800084 	movi	r2,2
     ecc:	e0bffa15 	stw	r2,-24(fp)
         printf("\n[SSS]: See STDERR for expanded diagnosis translation.");    
     ed0:	01000174 	movhi	r4,5
     ed4:	212dfa04 	addi	r4,r4,-18456
     ed8:	00034540 	call	3454 <printf>
         fprintf(stderr, "\n[SSS]: %s", (char *)expanded_diagnosis_ptr);
     edc:	00800174 	movhi	r2,5
     ee0:	108ad004 	addi	r2,r2,11072
     ee4:	10800017 	ldw	r2,0(r2)
     ee8:	11000317 	ldw	r4,12(r2)
     eec:	e1bffc17 	ldw	r6,-16(fp)
     ef0:	01400174 	movhi	r5,5
     ef4:	296e0804 	addi	r5,r5,-18400
     ef8:	00032000 	call	3200 <fprintf>
         break;
     efc:	00001b06 	br	f6c <alt_SSSErrorHandler+0x114>
         
      case OS_Q_FULL:
         fault_level = NONE;
     f00:	e03ffa15 	stw	zero,-24(fp)
         fprintf(stderr,"\n[SSS]: Attempted to post to a full message queue.");
     f04:	00800174 	movhi	r2,5
     f08:	108ad004 	addi	r2,r2,11072
     f0c:	10800017 	ldw	r2,0(r2)
     f10:	11c00317 	ldw	r7,12(r2)
     f14:	01000174 	movhi	r4,5
     f18:	212e0b04 	addi	r4,r4,-18388
     f1c:	01400044 	movi	r5,1
     f20:	01800c84 	movi	r6,50
     f24:	00032fc0 	call	32fc <fwrite>
         break;
     f28:	00001006 	br	f6c <alt_SSSErrorHandler+0x114>
      
      default:
         fault_level = SYSTEM;
     f2c:	00800084 	movi	r2,2
     f30:	e0bffa15 	stw	r2,-24(fp)
         printf("\n[SSS]: See STDERR.\n");    
     f34:	01000174 	movhi	r4,5
     f38:	212e1804 	addi	r4,r4,-18336
     f3c:	000356c0 	call	356c <puts>
         fprintf(stderr, "\n[SSS]: Error_code %d!", error_code);        
     f40:	00800174 	movhi	r2,5
     f44:	108ad004 	addi	r2,r2,11072
     f48:	10800017 	ldw	r2,0(r2)
     f4c:	11000317 	ldw	r4,12(r2)
     f50:	e1bffb03 	ldbu	r6,-20(fp)
     f54:	01400174 	movhi	r5,5
     f58:	296e1d04 	addi	r5,r5,-18316
     f5c:	00032000 	call	3200 <fprintf>
         perror("\n[SSS]:  ERRNO: ");
     f60:	01000174 	movhi	r4,5
     f64:	212e2304 	addi	r4,r4,-18292
     f68:	00034400 	call	3440 <perror>
   }

   /* Process the error based on the fault level, 
    * reenable scheduler if appropriate. */     
   switch (fault_level) 
     f6c:	e0bffa17 	ldw	r2,-24(fp)
     f70:	e0bfff15 	stw	r2,-4(fp)
     f74:	e0ffff17 	ldw	r3,-4(fp)
     f78:	18800060 	cmpeqi	r2,r3,1
     f7c:	1000071e 	bne	r2,zero,f9c <alt_SSSErrorHandler+0x144>
     f80:	e0ffff17 	ldw	r3,-4(fp)
     f84:	18800070 	cmpltui	r2,r3,1
     f88:	10003f1e 	bne	r2,zero,1088 <alt_SSSErrorHandler+0x230>
     f8c:	e0ffff17 	ldw	r3,-4(fp)
     f90:	188000a0 	cmpeqi	r2,r3,2
     f94:	10001d1e 	bne	r2,zero,100c <alt_SSSErrorHandler+0x1b4>
     f98:	00005806 	br	10fc <alt_SSSErrorHandler+0x2a4>
   {
      case TASK:
         /* Error can be isolated by killing the task */
         printf("\n[SSS]: See STDERR (FAULT_LEVEL is TASK).");
     f9c:	01000174 	movhi	r4,5
     fa0:	212e2804 	addi	r4,r4,-18272
     fa4:	00034540 	call	3454 <printf>
         fprintf(stderr, "\n[SSS]: FAULT_LEVEL is TASK");
     fa8:	00800174 	movhi	r2,5
     fac:	108ad004 	addi	r2,r2,11072
     fb0:	10800017 	ldw	r2,0(r2)
     fb4:	11c00317 	ldw	r7,12(r2)
     fb8:	01000174 	movhi	r4,5
     fbc:	212e3304 	addi	r4,r4,-18228
     fc0:	01400044 	movi	r5,1
     fc4:	018006c4 	movi	r6,27
     fc8:	00032fc0 	call	32fc <fwrite>
         fprintf(stderr, "\n[SSS]: Task is being deleted.\n");
     fcc:	00800174 	movhi	r2,5
     fd0:	108ad004 	addi	r2,r2,11072
     fd4:	10800017 	ldw	r2,0(r2)
     fd8:	11c00317 	ldw	r7,12(r2)
     fdc:	01000174 	movhi	r4,5
     fe0:	212e3a04 	addi	r4,r4,-18200
     fe4:	01400044 	movi	r5,1
     fe8:	018007c4 	movi	r6,31
     fec:	00032fc0 	call	32fc <fwrite>
         OSSchedUnlock(); /* Reenable Task Switching */
     ff0:	000db580 	call	db58 <OSSchedUnlock>
         OSTaskDel(OS_PRIO_SELF);
     ff4:	01003fc4 	movi	r4,255
     ff8:	0013c100 	call	13c10 <OSTaskDel>
         /* Invoke uCOSII error handler in case task deletion fails, in 
          * which case fault_level for this secondary error will be SYSTEM. */
         alt_uCOSIIErrorHandler(error_code, 0);         
     ffc:	e13ffb03 	ldbu	r4,-20(fp)
    1000:	000b883a 	mov	r5,zero
    1004:	000059c0 	call	59c <alt_uCOSIIErrorHandler>
         break;
    1008:	00004806 	br	112c <alt_SSSErrorHandler+0x2d4>
      case SYSTEM:
          /* Total System Failure, Restart Required */
         printf("\n[SSS]: See STDERR (FAULT_LEVEL is SYSTEM).");    
    100c:	01000174 	movhi	r4,5
    1010:	212e4204 	addi	r4,r4,-18168
    1014:	00034540 	call	3454 <printf>
         fprintf(stderr, "\n[SSS]: FAULT_LEVEL is SYSTEM.");
    1018:	00800174 	movhi	r2,5
    101c:	108ad004 	addi	r2,r2,11072
    1020:	10800017 	ldw	r2,0(r2)
    1024:	11c00317 	ldw	r7,12(r2)
    1028:	01000174 	movhi	r4,5
    102c:	212e4d04 	addi	r4,r4,-18124
    1030:	01400044 	movi	r5,1
    1034:	01800784 	movi	r6,30
    1038:	00032fc0 	call	32fc <fwrite>
         fprintf(stderr, "\n[SSS]: FATAL Error, Restart required.");
    103c:	00800174 	movhi	r2,5
    1040:	108ad004 	addi	r2,r2,11072
    1044:	10800017 	ldw	r2,0(r2)
    1048:	11c00317 	ldw	r7,12(r2)
    104c:	01000174 	movhi	r4,5
    1050:	212e5504 	addi	r4,r4,-18092
    1054:	01400044 	movi	r5,1
    1058:	01800984 	movi	r6,38
    105c:	00032fc0 	call	32fc <fwrite>
         fprintf(stderr, "\n[SSS]: Locking scheduler - endless loop.\n");
    1060:	00800174 	movhi	r2,5
    1064:	108ad004 	addi	r2,r2,11072
    1068:	10800017 	ldw	r2,0(r2)
    106c:	11c00317 	ldw	r7,12(r2)
    1070:	01000174 	movhi	r4,5
    1074:	212e5f04 	addi	r4,r4,-18052
    1078:	01400044 	movi	r5,1
    107c:	01800a84 	movi	r6,42
    1080:	00032fc0 	call	32fc <fwrite>
         while(1); /* Since scheduler is locked, loop halts all task activity.*/
    1084:	003fff06 	br	1084 <alt_SSSErrorHandler+0x22c>
         break;
      case NONE:
         fprintf(stderr, "\n[SSS] FAULT_LEVEL is NONE.");
    1088:	00800174 	movhi	r2,5
    108c:	108ad004 	addi	r2,r2,11072
    1090:	10800017 	ldw	r2,0(r2)
    1094:	11c00317 	ldw	r7,12(r2)
    1098:	01000174 	movhi	r4,5
    109c:	212e6a04 	addi	r4,r4,-18008
    10a0:	01400044 	movi	r5,1
    10a4:	018006c4 	movi	r6,27
    10a8:	00032fc0 	call	32fc <fwrite>
         fprintf(stderr, 
    10ac:	00800174 	movhi	r2,5
    10b0:	108ad004 	addi	r2,r2,11072
    10b4:	10800017 	ldw	r2,0(r2)
    10b8:	11c00317 	ldw	r7,12(r2)
    10bc:	01000174 	movhi	r4,5
    10c0:	212e7104 	addi	r4,r4,-17980
    10c4:	01400044 	movi	r5,1
    10c8:	01800f44 	movi	r6,61
    10cc:	00032fc0 	call	32fc <fwrite>
            "\n[SSS] Informational error only, control returned to task to ");
         fprintf(stderr,
    10d0:	00800174 	movhi	r2,5
    10d4:	108ad004 	addi	r2,r2,11072
    10d8:	10800017 	ldw	r2,0(r2)
    10dc:	11c00317 	ldw	r7,12(r2)
    10e0:	01000174 	movhi	r4,5
    10e4:	212e8104 	addi	r4,r4,-17916
    10e8:	01400044 	movi	r5,1
    10ec:	01800b84 	movi	r6,46
    10f0:	00032fc0 	call	32fc <fwrite>
            "complete processing at the application level.\n");
         OSSchedUnlock(); /* Reenable Task Switching */ 
    10f4:	000db580 	call	db58 <OSSchedUnlock>
         return;         
    10f8:	00000d06 	br	1130 <alt_SSSErrorHandler+0x2d8>
         break;
      default:
         printf("\n[SSS]: See STDERR (FAULT_LEVEL is Unknown).\n");
    10fc:	01000174 	movhi	r4,5
    1100:	212e8d04 	addi	r4,r4,-17868
    1104:	000356c0 	call	356c <puts>
         fprintf(stderr, "\n[SSS] FAULT_LEVEL is unknown!?!\n");
    1108:	00800174 	movhi	r2,5
    110c:	108ad004 	addi	r2,r2,11072
    1110:	10800017 	ldw	r2,0(r2)
    1114:	11c00317 	ldw	r7,12(r2)
    1118:	01000174 	movhi	r4,5
    111c:	212e9904 	addi	r4,r4,-17820
    1120:	01400044 	movi	r5,1
    1124:	01800844 	movi	r6,33
    1128:	00032fc0 	call	32fc <fwrite>
   }
   while(1); /* Correct Program Flow never gets here. */
    112c:	003fff06 	br	112c <alt_SSSErrorHandler+0x2d4>
}
    1130:	e037883a 	mov	sp,fp
    1134:	dfc00117 	ldw	ra,4(sp)
    1138:	df000017 	ldw	fp,0(sp)
    113c:	dec00204 	addi	sp,sp,8
    1140:	f800283a 	ret

00001144 <swap2>:
alt_sgdma_descriptor DescData  __attribute__ ((section ("desc")  ) );
alt_sgdma_descriptor DescEnd  __attribute__ ((section ("desc")  ) );



ushort swap2(ushort arg){ return( ( (arg & 0x00ff)<<8) + ((arg & 0xff00)>>8) ); }
    1144:	defffe04 	addi	sp,sp,-8
    1148:	df000115 	stw	fp,4(sp)
    114c:	df000104 	addi	fp,sp,4
    1150:	e13fff0d 	sth	r4,-4(fp)
    1154:	e0bfff0b 	ldhu	r2,-4(fp)
    1158:	10803fcc 	andi	r2,r2,255
    115c:	1004923a 	slli	r2,r2,8
    1160:	1007883a 	mov	r3,r2
    1164:	e0bfff0b 	ldhu	r2,-4(fp)
    1168:	10bfc00c 	andi	r2,r2,65280
    116c:	1005d23a 	srai	r2,r2,8
    1170:	1885883a 	add	r2,r3,r2
    1174:	10bfffcc 	andi	r2,r2,65535
    1178:	e037883a 	mov	sp,fp
    117c:	df000017 	ldw	fp,0(sp)
    1180:	dec00104 	addi	sp,sp,4
    1184:	f800283a 	ret

00001188 <checksum>:

unsigned short checksum(ushort *buffer, int size){
    1188:	defffb04 	addi	sp,sp,-20
    118c:	df000415 	stw	fp,16(sp)
    1190:	df000404 	addi	fp,sp,16
    1194:	e13ffe15 	stw	r4,-8(fp)
    1198:	e17fff15 	stw	r5,-4(fp)
// IP  ICMP
   unsigned long cksum=0;
    119c:	e03ffd15 	stw	zero,-12(fp)
   ushort res;
   while(size > 1) { cksum+=*buffer++; size -= 2; }
    11a0:	00000c06 	br	11d4 <checksum+0x4c>
    11a4:	e0bffe17 	ldw	r2,-8(fp)
    11a8:	1080000b 	ldhu	r2,0(r2)
    11ac:	10ffffcc 	andi	r3,r2,65535
    11b0:	e0bffd17 	ldw	r2,-12(fp)
    11b4:	10c5883a 	add	r2,r2,r3
    11b8:	e0bffd15 	stw	r2,-12(fp)
    11bc:	e0bffe17 	ldw	r2,-8(fp)
    11c0:	10800084 	addi	r2,r2,2
    11c4:	e0bffe15 	stw	r2,-8(fp)
    11c8:	e0bfff17 	ldw	r2,-4(fp)
    11cc:	10bfff84 	addi	r2,r2,-2
    11d0:	e0bfff15 	stw	r2,-4(fp)
    11d4:	e0bfff17 	ldw	r2,-4(fp)
    11d8:	10800088 	cmpgei	r2,r2,2
    11dc:	103ff11e 	bne	r2,zero,11a4 <checksum+0x1c>
   if(size) cksum += *(unsigned char *)buffer;
    11e0:	e0bfff17 	ldw	r2,-4(fp)
    11e4:	1005003a 	cmpeq	r2,r2,zero
    11e8:	1000061e 	bne	r2,zero,1204 <checksum+0x7c>
    11ec:	e0bffe17 	ldw	r2,-8(fp)
    11f0:	10800003 	ldbu	r2,0(r2)
    11f4:	10c03fcc 	andi	r3,r2,255
    11f8:	e0bffd17 	ldw	r2,-12(fp)
    11fc:	10c5883a 	add	r2,r2,r3
    1200:	e0bffd15 	stw	r2,-12(fp)
   cksum = (cksum >> 16) + (cksum & 0xffff);
    1204:	e0bffd17 	ldw	r2,-12(fp)
    1208:	1006d43a 	srli	r3,r2,16
    120c:	e0bffd17 	ldw	r2,-12(fp)
    1210:	10bfffcc 	andi	r2,r2,65535
    1214:	1885883a 	add	r2,r3,r2
    1218:	e0bffd15 	stw	r2,-12(fp)
   cksum += (cksum >>16);
    121c:	e0bffd17 	ldw	r2,-12(fp)
    1220:	1006d43a 	srli	r3,r2,16
    1224:	e0bffd17 	ldw	r2,-12(fp)
    1228:	10c5883a 	add	r2,r2,r3
    122c:	e0bffd15 	stw	r2,-12(fp)
   res = ~cksum ;
    1230:	e0bffd17 	ldw	r2,-12(fp)
    1234:	0084303a 	nor	r2,zero,r2
    1238:	e0bffc0d 	sth	r2,-16(fp)
   return ( res );
    123c:	e0bffc0b 	ldhu	r2,-16(fp)
}
    1240:	e037883a 	mov	sp,fp
    1244:	df000017 	ldw	fp,0(sp)
    1248:	dec00104 	addi	sp,sp,4
    124c:	f800283a 	ret

00001250 <InitUDP>:

void  InitUDP(  ){
    1250:	defffa04 	addi	sp,sp,-24
    1254:	dfc00515 	stw	ra,20(sp)
    1258:	df000415 	stw	fp,16(sp)
    125c:	df000404 	addi	fp,sp,16
	   Header.UdpHeader.ud_cksum=0;  //   
    1260:	008002b4 	movhi	r2,10
    1264:	10953204 	addi	r2,r2,21704
    1268:	10000a8d 	sth	zero,42(r2)
	   Header.UdpHeader.ud_srcp=htons(54035);  //   
    126c:	00c002b4 	movhi	r3,10
    1270:	18d53204 	addi	r3,r3,21704
    1274:	0084f4c4 	movi	r2,5075
    1278:	1880090d 	sth	r2,36(r3)
	   Header.UdpHeader.ud_dstp=htons(54035);
    127c:	00c002b4 	movhi	r3,10
    1280:	18d53204 	addi	r3,r3,21704
    1284:	0084f4c4 	movi	r2,5075
    1288:	1880098d 	sth	r2,38(r3)
	   Header.UdpHeader.ud_len=swap2(BlockSize+sizeof( TUdpHeader) );
    128c:	01010204 	movi	r4,1032
    1290:	00011440 	call	1144 <swap2>
    1294:	1007883a 	mov	r3,r2
    1298:	008002b4 	movhi	r2,10
    129c:	10953204 	addi	r2,r2,21704
    12a0:	10c00a0d 	sth	r3,40(r2)

	   Header.IpHeader.ip_ver_ihl=0x45;  //    
    12a4:	00c002b4 	movhi	r3,10
    12a8:	18d53204 	addi	r3,r3,21704
    12ac:	00801144 	movi	r2,69
    12b0:	18800405 	stb	r2,16(r3)
	   Header.IpHeader.ip_tos=0;
    12b4:	008002b4 	movhi	r2,10
    12b8:	10953204 	addi	r2,r2,21704
    12bc:	10000445 	stb	zero,17(r2)
	   Header.IpHeader.ip_len=swap2(BlockSize+sizeof(TUdpHeader)+sizeof(TIpHeader) );
    12c0:	01010704 	movi	r4,1052
    12c4:	00011440 	call	1144 <swap2>
    12c8:	1007883a 	mov	r3,r2
    12cc:	008002b4 	movhi	r2,10
    12d0:	10953204 	addi	r2,r2,21704
    12d4:	10c0048d 	sth	r3,18(r2)
	   Header.IpHeader.ip_id=0;   //  
    12d8:	008002b4 	movhi	r2,10
    12dc:	10953204 	addi	r2,r2,21704
    12e0:	1000050d 	sth	zero,20(r2)
	   Header.IpHeader.ip_flgs_foff=0; //  
    12e4:	008002b4 	movhi	r2,10
    12e8:	10953204 	addi	r2,r2,21704
    12ec:	1000058d 	sth	zero,22(r2)
	   Header.IpHeader.ip_time=2;      //   
    12f0:	00c002b4 	movhi	r3,10
    12f4:	18d53204 	addi	r3,r3,21704
    12f8:	00800084 	movi	r2,2
    12fc:	18800605 	stb	r2,24(r3)
	   Header.IpHeader.ip_prot=0x11;   //  udp
    1300:	00c002b4 	movhi	r3,10
    1304:	18d53204 	addi	r3,r3,21704
    1308:	00800444 	movi	r2,17
    130c:	18800645 	stb	r2,25(r3)
	   Header.IpHeader.ip_chksum= 0;
    1310:	008002b4 	movhi	r2,10
    1314:	10953204 	addi	r2,r2,21704
    1318:	1000068d 	sth	zero,26(r2)
	   Header.IpHeader.ip_src=192L + (168L<<8) + (0L<<16) + (55L<<24);  // ip   
    131c:	00c002b4 	movhi	r3,10
    1320:	18d53204 	addi	r3,r3,21704
    1324:	008dc074 	movhi	r2,14081
    1328:	10aa3004 	addi	r2,r2,-22336
    132c:	18800715 	stw	r2,28(r3)
	   Header.IpHeader.ip_dest=192L + (168L<<8) + (0L<<16) + (3L<<24);
    1330:	00c002b4 	movhi	r3,10
    1334:	18d53204 	addi	r3,r3,21704
    1338:	0080c074 	movhi	r2,769
    133c:	10aa3004 	addi	r2,r2,-22336
    1340:	18800815 	stw	r2,32(r3)
	   Header.IpHeader.ip_chksum = checksum( (ushort *)&Header.IpHeader, 20); //!!!!!!!!
    1344:	010002b4 	movhi	r4,10
    1348:	21153604 	addi	r4,r4,21720
    134c:	01400504 	movi	r5,20
    1350:	00011880 	call	1188 <checksum>
    1354:	1007883a 	mov	r3,r2
    1358:	008002b4 	movhi	r2,10
    135c:	10953204 	addi	r2,r2,21704
    1360:	10c0068d 	sth	r3,26(r2)

	   // ,   mac   
	   Header.MacHeader.st=0x0000;
    1364:	008002b4 	movhi	r2,10
    1368:	10953204 	addi	r2,r2,21704
    136c:	1000000d 	sth	zero,0(r2)
	   Header.MacHeader.dest_mac0=0x00;
    1370:	008002b4 	movhi	r2,10
    1374:	10953204 	addi	r2,r2,21704
    1378:	10000085 	stb	zero,2(r2)
	   Header.MacHeader.dest_mac1=0x24;
    137c:	00c002b4 	movhi	r3,10
    1380:	18d53204 	addi	r3,r3,21704
    1384:	00800904 	movi	r2,36
    1388:	188000c5 	stb	r2,3(r3)
	   Header.MacHeader.dest_mac2=0x81;
    138c:	00c002b4 	movhi	r3,10
    1390:	18d53204 	addi	r3,r3,21704
    1394:	00bfe044 	movi	r2,-127
    1398:	18800105 	stb	r2,4(r3)
	   Header.MacHeader.dest_mac3=0xb1;
    139c:	00c002b4 	movhi	r3,10
    13a0:	18d53204 	addi	r3,r3,21704
    13a4:	00bfec44 	movi	r2,-79
    13a8:	18800145 	stb	r2,5(r3)
	   Header.MacHeader.dest_mac4=0xa8;
    13ac:	00c002b4 	movhi	r3,10
    13b0:	18d53204 	addi	r3,r3,21704
    13b4:	00bfea04 	movi	r2,-88
    13b8:	18800185 	stb	r2,6(r3)
	   Header.MacHeader.dest_mac5=0xee;
    13bc:	00c002b4 	movhi	r3,10
    13c0:	18d53204 	addi	r3,r3,21704
    13c4:	00bffb84 	movi	r2,-18
    13c8:	188001c5 	stb	r2,7(r3)
	   Header.MacHeader.source_mac0=0x00;
    13cc:	008002b4 	movhi	r2,10
    13d0:	10953204 	addi	r2,r2,21704
    13d4:	10000205 	stb	zero,8(r2)
	   Header.MacHeader.source_mac1=0x25;
    13d8:	00c002b4 	movhi	r3,10
    13dc:	18d53204 	addi	r3,r3,21704
    13e0:	00800944 	movi	r2,37
    13e4:	18800245 	stb	r2,9(r3)
	   Header.MacHeader.source_mac2=0x02;
    13e8:	00c002b4 	movhi	r3,10
    13ec:	18d53204 	addi	r3,r3,21704
    13f0:	00800084 	movi	r2,2
    13f4:	18800285 	stb	r2,10(r3)
	   Header.MacHeader.source_mac3=0x03;
    13f8:	00c002b4 	movhi	r3,10
    13fc:	18d53204 	addi	r3,r3,21704
    1400:	008000c4 	movi	r2,3
    1404:	188002c5 	stb	r2,11(r3)
	   Header.MacHeader.source_mac4=0x04;
    1408:	00c002b4 	movhi	r3,10
    140c:	18d53204 	addi	r3,r3,21704
    1410:	00800104 	movi	r2,4
    1414:	18800305 	stb	r2,12(r3)
	   Header.MacHeader.source_mac5=0x07;
    1418:	00c002b4 	movhi	r3,10
    141c:	18d53204 	addi	r3,r3,21704
    1420:	008001c4 	movi	r2,7
    1424:	18800345 	stb	r2,13(r3)
	   Header.MacHeader.type_len=0x0008;
    1428:	00c002b4 	movhi	r3,10
    142c:	18d53204 	addi	r3,r3,21704
    1430:	00800204 	movi	r2,8
    1434:	1880038d 	sth	r2,14(r3)


		 //   
		   alt_avalon_sgdma_construct_mem_to_stream_desc(
    1438:	018002b4 	movhi	r6,10
    143c:	31953204 	addi	r6,r6,21704
    1440:	d8000015 	stw	zero,0(sp)
    1444:	00800044 	movi	r2,1
    1448:	d8800115 	stw	r2,4(sp)
    144c:	d8000215 	stw	zero,8(sp)
    1450:	d8000315 	stw	zero,12(sp)
    1454:	0102d074 	movhi	r4,2881
    1458:	212e2004 	addi	r4,r4,-18304
    145c:	0142d074 	movhi	r5,2881
    1460:	296e3004 	addi	r5,r5,-18240
    1464:	01c00b04 	movi	r7,44
    1468:	00193a40 	call	193a4 <alt_avalon_sgdma_construct_mem_to_stream_desc>
		      0,                                        // don't read from constant address
		      1,                                        // generate sop
		      0,                                        // generate endofpacket signal
		      0);                                       // atlantic channel (don't know/don't care: set to 0)

		   alt_avalon_sgdma_construct_mem_to_stream_desc(
    146c:	d8000015 	stw	zero,0(sp)
    1470:	d8000115 	stw	zero,4(sp)
    1474:	00800044 	movi	r2,1
    1478:	d8800215 	stw	r2,8(sp)
    147c:	d8000315 	stw	zero,12(sp)
    1480:	0102d074 	movhi	r4,2881
    1484:	212e2804 	addi	r4,r4,-18272
    1488:	0142d074 	movhi	r5,2881
    148c:	296e3004 	addi	r5,r5,-18240
    1490:	000d883a 	mov	r6,zero
    1494:	01c10004 	movi	r7,1024
    1498:	00193a40 	call	193a4 <alt_avalon_sgdma_construct_mem_to_stream_desc>
		      0,                                        // generate sop
		      1,                                        // generate endofpacket signal
		      0);                                       // atlantic channel (don't know/don't care: set to 0)


   }
    149c:	e037883a 	mov	sp,fp
    14a0:	dfc00117 	ldw	ra,4(sp)
    14a4:	df000017 	ldw	fp,0(sp)
    14a8:	dec00204 	addi	sp,sp,8
    14ac:	f800283a 	ret

000014b0 <hack_tse_mac_sTxWrite>:

// .           

alt_32 hack_tse_mac_sTxWrite( tse_mac_trans_info *mi,  alt_sgdma_descriptor *txDesc){
    14b0:	defff904 	addi	sp,sp,-28
    14b4:	dfc00615 	stw	ra,24(sp)
    14b8:	df000515 	stw	fp,20(sp)
    14bc:	df000504 	addi	fp,sp,20
    14c0:	e13ffd15 	stw	r4,-12(fp)
    14c4:	e17ffe15 	stw	r5,-8(fp)

  alt_32 timeout;
  alt_u8 result = 0;
    14c8:	e03ffb85 	stb	zero,-18(fp)
  alt_u16 actualBytesTransferred;

  // Make sure DMA controller is not busy from a former command
  // and TX is able to accept data
  timeout = 0;
    14cc:	e03ffc15 	stw	zero,-16(fp)
  //tse_dprintf("\nWaiting while tx SGDMA is busy......... ");
  while ( (IORD_ALTERA_AVALON_SGDMA_STATUS(mi->tx_sgdma->base) &
    14d0:	00000d06 	br	1508 <hack_tse_mac_sTxWrite+0x58>
           ALTERA_AVALON_SGDMA_STATUS_BUSY_MSK) ) {
           if(timeout++ == ALTERA_TSE_SGDMA_BUSY_TIME_OUT_CNT) {
    14d4:	e0bffc17 	ldw	r2,-16(fp)
    14d8:	10800044 	addi	r2,r2,1
    14dc:	e0bffc15 	stw	r2,-16(fp)
    14e0:	e0fffc17 	ldw	r3,-16(fp)
    14e4:	008003f4 	movhi	r2,15
    14e8:	10909044 	addi	r2,r2,16961
    14ec:	1880061e 	bne	r3,r2,1508 <hack_tse_mac_sTxWrite+0x58>
            tse_dprintf(4, "WARNING : TX SGDMA Timeout\n");
    14f0:	01000174 	movhi	r4,5
    14f4:	212ea204 	addi	r4,r4,-17784
    14f8:	000356c0 	call	356c <puts>
            return ENP_RESOURCE;  // avoid being stuck here
    14fc:	00bffa84 	movi	r2,-22
    1500:	e0bfff15 	stw	r2,-4(fp)
    1504:	00002006 	br	1588 <hack_tse_mac_sTxWrite+0xd8>

  // Make sure DMA controller is not busy from a former command
  // and TX is able to accept data
  timeout = 0;
  //tse_dprintf("\nWaiting while tx SGDMA is busy......... ");
  while ( (IORD_ALTERA_AVALON_SGDMA_STATUS(mi->tx_sgdma->base) &
    1508:	e0bffd17 	ldw	r2,-12(fp)
    150c:	10800117 	ldw	r2,4(r2)
    1510:	10800317 	ldw	r2,12(r2)
    1514:	10800037 	ldwio	r2,0(r2)
    1518:	1080040c 	andi	r2,r2,16
    151c:	1004c03a 	cmpne	r2,r2,zero
    1520:	103fec1e 	bne	r2,zero,14d4 <hack_tse_mac_sTxWrite+0x24>
           }
  }

  // Set up the SGDMA
  // Clear the status and control bits of the SGDMA descriptor
  IOWR_ALTERA_AVALON_SGDMA_CONTROL (mi->tx_sgdma->base, 0);
    1524:	e0bffd17 	ldw	r2,-12(fp)
    1528:	10800117 	ldw	r2,4(r2)
    152c:	10800317 	ldw	r2,12(r2)
    1530:	10800404 	addi	r2,r2,16
    1534:	10000035 	stwio	zero,0(r2)
  IOWR_ALTERA_AVALON_SGDMA_STATUS (mi->tx_sgdma->base, 0xFF);
    1538:	e0bffd17 	ldw	r2,-12(fp)
    153c:	10800117 	ldw	r2,4(r2)
    1540:	10800317 	ldw	r2,12(r2)
    1544:	1007883a 	mov	r3,r2
    1548:	00803fc4 	movi	r2,255
    154c:	18800035 	stwio	r2,0(r3)

  // Start SGDMA (blocking call)
  result = alt_avalon_sgdma_do_sync_transfer(   mi->tx_sgdma,  (alt_sgdma_descriptor *) &txDesc[0]    );
    1550:	e0bffd17 	ldw	r2,-12(fp)
    1554:	11000117 	ldw	r4,4(r2)
    1558:	e17ffe17 	ldw	r5,-8(fp)
    155c:	00190cc0 	call	190cc <alt_avalon_sgdma_do_sync_transfer>
    1560:	e0bffb85 	stb	r2,-18(fp)

  /* perform cache save read to obtain actual bytes transferred for current sgdma descriptor */
  actualBytesTransferred = IORD_ALTERA_TSE_SGDMA_DESC_ACTUAL_BYTES_TRANSFERRED(&txDesc[0]);
    1564:	e0bffe17 	ldw	r2,-8(fp)
    1568:	10800704 	addi	r2,r2,28
    156c:	10800037 	ldwio	r2,0(r2)
    1570:	1007883a 	mov	r3,r2
    1574:	00bfffc4 	movi	r2,-1
    1578:	1884703a 	and	r2,r3,r2
    157c:	e0bffb0d 	sth	r2,-20(fp)

  return actualBytesTransferred;
    1580:	e0bffb0b 	ldhu	r2,-20(fp)
    1584:	e0bfff15 	stw	r2,-4(fp)
    1588:	e0bfff17 	ldw	r2,-4(fp)
}
    158c:	e037883a 	mov	sp,fp
    1590:	dfc00117 	ldw	ra,4(sp)
    1594:	df000017 	ldw	fp,0(sp)
    1598:	dec00204 	addi	sp,sp,8
    159c:	f800283a 	ret

000015a0 <hack_tse_mac_raw_send>:


int hack_tse_mac_raw_send(NET net, char * data, unsigned data_bytes, int sop_eop)
{
    15a0:	deffe804 	addi	sp,sp,-96
    15a4:	dfc01715 	stw	ra,92(sp)
    15a8:	df001615 	stw	fp,88(sp)
    15ac:	df001604 	addi	fp,sp,88
    15b0:	e13ffb15 	stw	r4,-20(fp)
    15b4:	e17ffc15 	stw	r5,-16(fp)
    15b8:	e1bffd15 	stw	r6,-12(fp)
    15bc:	e1fffe15 	stw	r7,-8(fp)
   int result,i,tx_length;
   unsigned len = data_bytes;
    15c0:	e0bffd17 	ldw	r2,-12(fp)
    15c4:	e0bff715 	stw	r2,-36(fp)

   ins_tse_info* tse_ptr = (ins_tse_info*) net->n_local;
    15c8:	e0bffb17 	ldw	r2,-20(fp)
    15cc:	10802817 	ldw	r2,160(r2)
    15d0:	e0bff615 	stw	r2,-40(fp)

   alt_tse_system_info* tse_hw = (alt_tse_system_info *) tse_ptr->tse;
    15d4:	e0bff617 	ldw	r2,-40(fp)
    15d8:	10801217 	ldw	r2,72(r2)
    15dc:	e0bff515 	stw	r2,-44(fp)
static ALT_INLINE alt_irq_context ALT_ALWAYS_INLINE 
       alt_irq_disable_all (void)
{
  alt_irq_context context;

  NIOS2_READ_STATUS (context);
    15e0:	0005303a 	rdctl	r2,status
    15e4:	e0bff115 	stw	r2,-60(fp)

  NIOS2_WRITE_STATUS (context & ~NIOS2_STATUS_PIE_MSK);
    15e8:	e0fff117 	ldw	r3,-60(fp)
    15ec:	00bfff84 	movi	r2,-2
    15f0:	1884703a 	and	r2,r3,r2
    15f4:	1001703a 	wrctl	status,r2
  
  return context;
    15f8:	e0bff117 	ldw	r2,-60(fp)

   tse_mac_trans_info *mi;
   unsigned int* ActualData;
   int cpu_sr;

   OS_ENTER_CRITICAL();
    15fc:	e0bff215 	stw	r2,-56(fp)
   mi = &tse_ptr->mi;
    1600:	e0bff617 	ldw	r2,-40(fp)
    1604:	10800104 	addi	r2,r2,4
    1608:	e0bff415 	stw	r2,-48(fp)

   if(tse_ptr->sem!=0) /* Tx is busy*/
    160c:	e0bff617 	ldw	r2,-40(fp)
    1610:	10800c17 	ldw	r2,48(r2)
    1614:	1005003a 	cmpeq	r2,r2,zero
    1618:	10000a1e 	bne	r2,zero,1644 <hack_tse_mac_raw_send+0xa4>
   {
      dprintf("raw_send CALLED AGAIN(hack)!!!\n");
    161c:	01000174 	movhi	r4,5
    1620:	212ea904 	addi	r4,r4,-17756
    1624:	000356c0 	call	356c <puts>
    1628:	e0bff217 	ldw	r2,-56(fp)
    162c:	e0bff015 	stw	r2,-64(fp)
  status &= ~NIOS2_STATUS_PIE_MSK;
  status |= (context & NIOS2_STATUS_PIE_MSK);
  
  NIOS2_WRITE_STATUS (status);
#else
  NIOS2_WRITE_STATUS (context);
    1630:	e0bff017 	ldw	r2,-64(fp)
    1634:	1001703a 	wrctl	status,r2
      OS_EXIT_CRITICAL();
      return ENP_RESOURCE;
    1638:	00bffa84 	movi	r2,-22
    163c:	e0bfff15 	stw	r2,-4(fp)
    1640:	00004a06 	br	176c <hack_tse_mac_raw_send+0x1cc>
   }

   tse_ptr->sem = 1;
    1644:	e0fff617 	ldw	r3,-40(fp)
    1648:	00800044 	movi	r2,1
    164c:	18800c15 	stw	r2,48(r3)

      ActualData = (unsigned int*)data;  /* base driver will detect 16-bit shift. */
    1650:	e0bffc17 	ldw	r2,-16(fp)
    1654:	e0bff315 	stw	r2,-52(fp)
     // clear bit-31 before passing it to SGDMA Driver
     ActualData = (unsigned int*)alt_remap_cached ((volatile void*) ActualData, 4);
    1658:	e13ff317 	ldw	r4,-52(fp)
    165c:	01400104 	movi	r5,4
    1660:	000cc000 	call	cc00 <alt_remap_cached>
    1664:	e0bff315 	stw	r2,-52(fp)

   } else {
       result = -3;
   }
*/
   alt_avalon_sgdma_construct_mem_to_stream_desc(
    1668:	e0bff617 	ldw	r2,-40(fp)
    166c:	11000f17 	ldw	r4,60(r2)
    1670:	e0bff617 	ldw	r2,-40(fp)
    1674:	10800f17 	ldw	r2,60(r2)
    1678:	11400804 	addi	r5,r2,32
    167c:	e1bff317 	ldw	r6,-52(fp)
    1680:	e0bff717 	ldw	r2,-36(fp)
    1684:	11ffffcc 	andi	r7,r2,65535
    1688:	e0bffe17 	ldw	r2,-8(fp)
    168c:	1006c03a 	cmpne	r3,r2,zero
    1690:	e0bffe17 	ldw	r2,-8(fp)
    1694:	1005003a 	cmpeq	r2,r2,zero
    1698:	d8000015 	stw	zero,0(sp)
    169c:	d8c00115 	stw	r3,4(sp)
    16a0:	d8800215 	stw	r2,8(sp)
    16a4:	d8000315 	stw	zero,12(sp)
    16a8:	00193a40 	call	193a4 <alt_avalon_sgdma_construct_mem_to_stream_desc>
      sop_eop?1:0,                                        // generate sop
      sop_eop?0:1,                                        // generate endofpacket signal
      0);                                       // atlantic channel (don't know/don't care: set to 0)


  tx_length = hack_tse_mac_sTxWrite(mi,tse_ptr->desc);
    16ac:	e0bff617 	ldw	r2,-40(fp)
    16b0:	11400f17 	ldw	r5,60(r2)
    16b4:	e13ff417 	ldw	r4,-48(fp)
    16b8:	00014b00 	call	14b0 <hack_tse_mac_sTxWrite>
    16bc:	e0bff815 	stw	r2,-32(fp)
  result = 0;
    16c0:	e03ffa15 	stw	zero,-24(fp)

   if(result < 0)   /* SGDMA not available */
    16c4:	e0bffa17 	ldw	r2,-24(fp)
    16c8:	1004403a 	cmpge	r2,r2,zero
    16cc:	1000131e 	bne	r2,zero,171c <hack_tse_mac_raw_send+0x17c>
   {
      dprintf("raw_send() SGDMA not available, ret=%d, len=%d\n",result, len);
    16d0:	01000174 	movhi	r4,5
    16d4:	212eb104 	addi	r4,r4,-17724
    16d8:	e17ffa17 	ldw	r5,-24(fp)
    16dc:	e1bff717 	ldw	r6,-36(fp)
    16e0:	00034540 	call	3454 <printf>
      net->n_mib->ifOutDiscards++;
    16e4:	e0bffb17 	ldw	r2,-20(fp)
    16e8:	10c02717 	ldw	r3,156(r2)
    16ec:	18801217 	ldw	r2,72(r3)
    16f0:	10800044 	addi	r2,r2,1
    16f4:	18801215 	stw	r2,72(r3)
      tse_ptr->sem = 0;
    16f8:	e0bff617 	ldw	r2,-40(fp)
    16fc:	10000c15 	stw	zero,48(r2)
    1700:	e0bff217 	ldw	r2,-56(fp)
    1704:	e0bfef15 	stw	r2,-68(fp)
    1708:	e0bfef17 	ldw	r2,-68(fp)
    170c:	1001703a 	wrctl	status,r2

      OS_EXIT_CRITICAL();
      return SEND_DROPPED;   /* ENP_RESOURCE and SEND_DROPPED have the same value! */
    1710:	00bffa84 	movi	r2,-22
    1714:	e0bfff15 	stw	r2,-4(fp)
    1718:	00001406 	br	176c <hack_tse_mac_raw_send+0x1cc>
   }
   else   /* = 0, success */
   {
      net->n_mib->ifOutOctets += data_bytes;
    171c:	e0bffb17 	ldw	r2,-20(fp)
    1720:	11002717 	ldw	r4,156(r2)
    1724:	e0bffb17 	ldw	r2,-20(fp)
    1728:	10802717 	ldw	r2,156(r2)
    172c:	10c00f17 	ldw	r3,60(r2)
    1730:	e0bffd17 	ldw	r2,-12(fp)
    1734:	1885883a 	add	r2,r3,r2
    1738:	20800f15 	stw	r2,60(r4)
      /* we dont know whether it was unicast or not, we count both in <ifOutUcastPkts> */
      net->n_mib->ifOutUcastPkts++;
    173c:	e0bffb17 	ldw	r2,-20(fp)
    1740:	10c02717 	ldw	r3,156(r2)
    1744:	18801017 	ldw	r2,64(r3)
    1748:	10800044 	addi	r2,r2,1
    174c:	18801015 	stw	r2,64(r3)
      tse_ptr->sem = 0;
    1750:	e0bff617 	ldw	r2,-40(fp)
    1754:	10000c15 	stw	zero,48(r2)
    1758:	e0bff217 	ldw	r2,-56(fp)
    175c:	e0bfee15 	stw	r2,-72(fp)
    1760:	e0bfee17 	ldw	r2,-72(fp)
    1764:	1001703a 	wrctl	status,r2

      OS_EXIT_CRITICAL();
      return SUCCESS;  /*success */
    1768:	e03fff15 	stw	zero,-4(fp)
    176c:	e0bfff17 	ldw	r2,-4(fp)
   }
}
    1770:	e037883a 	mov	sp,fp
    1774:	dfc00117 	ldw	ra,4(sp)
    1778:	df000017 	ldw	fp,0(sp)
    177c:	dec00204 	addi	sp,sp,8
    1780:	f800283a 	ret

00001784 <hack_send>:

 void hack_send( NET net,  unsigned char *data, int Len ){
    1784:	deffed04 	addi	sp,sp,-76
    1788:	dfc01215 	stw	ra,72(sp)
    178c:	df001115 	stw	fp,68(sp)
    1790:	df001104 	addi	fp,sp,68
    1794:	e13ffd15 	stw	r4,-12(fp)
    1798:	e17ffe15 	stw	r5,-8(fp)
    179c:	e1bfff15 	stw	r6,-4(fp)
	 // !    

   ins_tse_info* tse_ptr = (ins_tse_info*) net->n_local;
    17a0:	e0bffd17 	ldw	r2,-12(fp)
    17a4:	10802817 	ldw	r2,160(r2)
    17a8:	e0bffc15 	stw	r2,-16(fp)
   //alt_tse_system_info* tse_hw = (alt_tse_system_info *) tse_ptr->tse;
   tse_mac_trans_info *mi;
   alt_u8 result=0;
    17ac:	e03ffa85 	stb	zero,-22(fp)
   alt_u8 control_header,control_data;
   alt_u8 *PData=data;
    17b0:	e0bffe17 	ldw	r2,-8(fp)
    17b4:	e0bff915 	stw	r2,-28(fp)
static ALT_INLINE alt_irq_context ALT_ALWAYS_INLINE 
       alt_irq_disable_all (void)
{
  alt_irq_context context;

  NIOS2_READ_STATUS (context);
    17b8:	0005303a 	rdctl	r2,status
    17bc:	e0bff515 	stw	r2,-44(fp)

  NIOS2_WRITE_STATUS (context & ~NIOS2_STATUS_PIE_MSK);
    17c0:	e0fff517 	ldw	r3,-44(fp)
    17c4:	00bfff84 	movi	r2,-2
    17c8:	1884703a 	and	r2,r3,r2
    17cc:	1001703a 	wrctl	status,r2
  
  return context;
    17d0:	e0bff517 	ldw	r2,-44(fp)
   int cpu_sr,tx_length;
   alt_32 timeout;

   OS_ENTER_CRITICAL();
    17d4:	e0bff815 	stw	r2,-32(fp)
   mi = &tse_ptr->mi;
    17d8:	e0bffc17 	ldw	r2,-16(fp)
    17dc:	10800104 	addi	r2,r2,4
    17e0:	e0bffb15 	stw	r2,-20(fp)
   //  ,  ?
   if(tse_ptr->sem!=0){
    17e4:	e0bffc17 	ldw	r2,-16(fp)
    17e8:	10800c17 	ldw	r2,48(r2)
    17ec:	1005003a 	cmpeq	r2,r2,zero
    17f0:	1000081e 	bne	r2,zero,1814 <hack_send+0x90>
      dprintf("raw_send CALLED AGAIN!!!\n");
    17f4:	01000174 	movhi	r4,5
    17f8:	212ebd04 	addi	r4,r4,-17676
    17fc:	000356c0 	call	356c <puts>
    1800:	e0bff817 	ldw	r2,-32(fp)
    1804:	e0bff415 	stw	r2,-48(fp)
  status &= ~NIOS2_STATUS_PIE_MSK;
  status |= (context & NIOS2_STATUS_PIE_MSK);
  
  NIOS2_WRITE_STATUS (status);
#else
  NIOS2_WRITE_STATUS (context);
    1808:	e0bff417 	ldw	r2,-48(fp)
    180c:	1001703a 	wrctl	status,r2
      OS_EXIT_CRITICAL();
      return ;
    1810:	00005306 	br	1960 <hack_send+0x1dc>
   }
   tse_ptr->sem = 1; // 
    1814:	e0fffc17 	ldw	r3,-16(fp)
    1818:	00800044 	movi	r2,1
    181c:	18800c15 	stw	r2,48(r3)
    1820:	e0bff817 	ldw	r2,-32(fp)
    1824:	e0bff315 	stw	r2,-52(fp)
    1828:	e0bff317 	ldw	r2,-52(fp)
    182c:	1001703a 	wrctl	status,r2
   OS_EXIT_CRITICAL();

   control_header=DescHeader.control;
    1830:	0082d074 	movhi	r2,2881
    1834:	10ae2004 	addi	r2,r2,-18304
    1838:	108007c3 	ldbu	r2,31(r2)
    183c:	e0bffa45 	stb	r2,-23(fp)
   control_data=DescData.control;
    1840:	0082d074 	movhi	r2,2881
    1844:	10ae2804 	addi	r2,r2,-18272
    1848:	108007c3 	ldbu	r2,31(r2)
    184c:	e0bffa05 	stb	r2,-24(fp)


	   do{
	   //  
          IOWR_32DIRECT(&DescData.read_addr, 0, (alt_u32)PData);
    1850:	0082d074 	movhi	r2,2881
    1854:	10ae2804 	addi	r2,r2,-18272
    1858:	e0fff917 	ldw	r3,-28(fp)
    185c:	10c00035 	stwio	r3,0(r2)
static ALT_INLINE alt_irq_context ALT_ALWAYS_INLINE 
       alt_irq_disable_all (void)
{
  alt_irq_context context;

  NIOS2_READ_STATUS (context);
    1860:	0005303a 	rdctl	r2,status
    1864:	e0bff215 	stw	r2,-56(fp)

  NIOS2_WRITE_STATUS (context & ~NIOS2_STATUS_PIE_MSK);
    1868:	e0fff217 	ldw	r3,-56(fp)
    186c:	00bfff84 	movi	r2,-2
    1870:	1884703a 	and	r2,r3,r2
    1874:	1001703a 	wrctl	status,r2
  
  return context;
    1878:	e0bff217 	ldw	r2,-56(fp)

		   OS_ENTER_CRITICAL();
    187c:	e0bff815 	stw	r2,-32(fp)
		   tx_length = hack_tse_mac_sTxWrite(mi,  &DescHeader);
    1880:	e13ffb17 	ldw	r4,-20(fp)
    1884:	0142d074 	movhi	r5,2881
    1888:	296e2004 	addi	r5,r5,-18304
    188c:	00014b00 	call	14b0 <hack_tse_mac_sTxWrite>
    1890:	e0bff715 	stw	r2,-36(fp)
		   tx_length = hack_tse_mac_sTxWrite(mi,  &DescData);
    1894:	e13ffb17 	ldw	r4,-20(fp)
    1898:	0142d074 	movhi	r5,2881
    189c:	296e2804 	addi	r5,r5,-18272
    18a0:	00014b00 	call	14b0 <hack_tse_mac_sTxWrite>
    18a4:	e0bff715 	stw	r2,-36(fp)
          // result = alt_avalon_sgdma_do_sync_transfer(mi->tx_sgdma, (alt_sgdma_descriptor *) &DescHeader  );
          // result = alt_avalon_sgdma_do_sync_transfer(mi->tx_sgdma, (alt_sgdma_descriptor *) &DescData  );
	       Len-=BlockSize; PData+=BlockSize;
    18a8:	e0bfff17 	ldw	r2,-4(fp)
    18ac:	10bf0004 	addi	r2,r2,-1024
    18b0:	e0bfff15 	stw	r2,-4(fp)
    18b4:	e0bff917 	ldw	r2,-28(fp)
    18b8:	10810004 	addi	r2,r2,1024
    18bc:	e0bff915 	stw	r2,-28(fp)

	       // ""
		   //IOWR_ALTERA_AVALON_SGDMA_CONTROL (mi->tx_sgdma->base, 0);
		   //IOWR_ALTERA_AVALON_SGDMA_STATUS (mi->tx_sgdma->base, 0xFF);
	         // "" 
	         IOWR_8DIRECT(&DescHeader.control,0,control_header);  //   
    18c0:	e0fffa43 	ldbu	r3,-23(fp)
    18c4:	0082d074 	movhi	r2,2881
    18c8:	10ae27c4 	addi	r2,r2,-18273
    18cc:	10c00025 	stbio	r3,0(r2)
	         IOWR_8DIRECT(&DescHeader.status,0,0x00);
    18d0:	0082d074 	movhi	r2,2881
    18d4:	10ae2784 	addi	r2,r2,-18274
    18d8:	10000025 	stbio	zero,0(r2)
	         IOWR_32DIRECT(&DescData.read_addr, 0, (alt_u32)PData);
    18dc:	0082d074 	movhi	r2,2881
    18e0:	10ae2804 	addi	r2,r2,-18272
    18e4:	e0fff917 	ldw	r3,-28(fp)
    18e8:	10c00035 	stwio	r3,0(r2)
	         IOWR_8DIRECT (&DescData.control,0,control_data);  //   
    18ec:	e0fffa03 	ldbu	r3,-24(fp)
    18f0:	0082d074 	movhi	r2,2881
    18f4:	10ae2fc4 	addi	r2,r2,-18241
    18f8:	10c00025 	stbio	r3,0(r2)
	         IOWR_8DIRECT (&DescData.status,0,0x00);
    18fc:	0082d074 	movhi	r2,2881
    1900:	10ae2f84 	addi	r2,r2,-18242
    1904:	10000025 	stbio	zero,0(r2)
    1908:	e0bff817 	ldw	r2,-32(fp)
    190c:	e0bff115 	stw	r2,-60(fp)
  status &= ~NIOS2_STATUS_PIE_MSK;
  status |= (context & NIOS2_STATUS_PIE_MSK);
  
  NIOS2_WRITE_STATUS (status);
#else
  NIOS2_WRITE_STATUS (context);
    1910:	e0bff117 	ldw	r2,-60(fp)
    1914:	1001703a 	wrctl	status,r2

            OS_EXIT_CRITICAL();
            OS_Sched();
    1918:	000ea140 	call	ea14 <OS_Sched>
	   } while(Len>0);
    191c:	e0bfff17 	ldw	r2,-4(fp)
    1920:	10800048 	cmpgei	r2,r2,1
    1924:	103fca1e 	bne	r2,zero,1850 <hack_send+0xcc>
static ALT_INLINE alt_irq_context ALT_ALWAYS_INLINE 
       alt_irq_disable_all (void)
{
  alt_irq_context context;

  NIOS2_READ_STATUS (context);
    1928:	0005303a 	rdctl	r2,status
    192c:	e0bff015 	stw	r2,-64(fp)

  NIOS2_WRITE_STATUS (context & ~NIOS2_STATUS_PIE_MSK);
    1930:	e0fff017 	ldw	r3,-64(fp)
    1934:	00bfff84 	movi	r2,-2
    1938:	1884703a 	and	r2,r3,r2
    193c:	1001703a 	wrctl	status,r2
  
  return context;
    1940:	e0bff017 	ldw	r2,-64(fp)

	   OS_ENTER_CRITICAL();
    1944:	e0bff815 	stw	r2,-32(fp)
       tse_ptr->sem = 0;
    1948:	e0bffc17 	ldw	r2,-16(fp)
    194c:	10000c15 	stw	zero,48(r2)
    1950:	e0bff817 	ldw	r2,-32(fp)
    1954:	e0bfef15 	stw	r2,-68(fp)
  status &= ~NIOS2_STATUS_PIE_MSK;
  status |= (context & NIOS2_STATUS_PIE_MSK);
  
  NIOS2_WRITE_STATUS (status);
#else
  NIOS2_WRITE_STATUS (context);
    1958:	e0bfef17 	ldw	r2,-68(fp)
    195c:	1001703a 	wrctl	status,r2
	   OS_EXIT_CRITICAL();
}
    1960:	e037883a 	mov	sp,fp
    1964:	dfc00117 	ldw	ra,4(sp)
    1968:	df000017 	ldw	fp,0(sp)
    196c:	dec00204 	addi	sp,sp,8
    1970:	f800283a 	ret

00001974 <SendUDP>:



 void SendUDP(alt_u8 *PBuf, int Len, NET *ExtNet){
    1974:	defffa04 	addi	sp,sp,-24
    1978:	dfc00515 	stw	ra,20(sp)
    197c:	df000415 	stw	fp,16(sp)
    1980:	df000404 	addi	fp,sp,16
    1984:	e13ffd15 	stw	r4,-12(fp)
    1988:	e17ffe15 	stw	r5,-8(fp)
    198c:	e1bfff15 	stw	r6,-4(fp)
     int res;
   //  hack_send( ExtNet,  PBuf, Len );

	 do{
    	 res= hack_tse_mac_raw_send( ExtNet,(char*) &Header, UDPHeaderSize,1 );
    1990:	e13fff17 	ldw	r4,-4(fp)
    1994:	014002b4 	movhi	r5,10
    1998:	29553204 	addi	r5,r5,21704
    199c:	01800b04 	movi	r6,44
    19a0:	01c00044 	movi	r7,1
    19a4:	00015a00 	call	15a0 <hack_tse_mac_raw_send>
    19a8:	e0bffc15 	stw	r2,-16(fp)
    	 res= hack_tse_mac_raw_send( ExtNet,(char*) PBuf, BlockSize,0 );
    19ac:	e13fff17 	ldw	r4,-4(fp)
    19b0:	e17ffd17 	ldw	r5,-12(fp)
    19b4:	01810004 	movi	r6,1024
    19b8:	000f883a 	mov	r7,zero
    19bc:	00015a00 	call	15a0 <hack_tse_mac_raw_send>
    19c0:	e0bffc15 	stw	r2,-16(fp)
		 PBuf+=BlockSize;
    19c4:	e0bffd17 	ldw	r2,-12(fp)
    19c8:	10810004 	addi	r2,r2,1024
    19cc:	e0bffd15 	stw	r2,-12(fp)
		 Len-=BlockSize;
    19d0:	e0bffe17 	ldw	r2,-8(fp)
    19d4:	10bf0004 	addi	r2,r2,-1024
    19d8:	e0bffe15 	stw	r2,-8(fp)
//		 OS_Sched();
//		 OSTimeDly(1);
	 }while(Len>0);
    19dc:	e0bffe17 	ldw	r2,-8(fp)
    19e0:	10800048 	cmpgei	r2,r2,1
    19e4:	103fea1e 	bne	r2,zero,1990 <SendUDP+0x1c>

 }
    19e8:	e037883a 	mov	sp,fp
    19ec:	dfc00117 	ldw	ra,4(sp)
    19f0:	df000017 	ldw	fp,0(sp)
    19f4:	dec00204 	addi	sp,sp,8
    19f8:	f800283a 	ret

000019fc <SSSInitialTask>:
/* SSSInitialTask will initialize the NicheStack
 * TCP/IP Stack and then initialize the rest of the Simple Socket Server example 
 * RTOS structures and tasks. 
 */
void SSSInitialTask(void *task_data)
{
    19fc:	defffc04 	addi	sp,sp,-16
    1a00:	dfc00315 	stw	ra,12(sp)
    1a04:	df000215 	stw	fp,8(sp)
    1a08:	df000204 	addi	fp,sp,8
    1a0c:	e13fff15 	stw	r4,-4(fp)
   * NicheStack is initialized from a task, so that RTOS will have started, and 
   * I/O drivers are available.  Two tasks are created:
   *    "Inet main"  task with priority 2
   *    "clock tick" task with priority 3
   */   
  alt_iniche_init();
    1a10:	002942c0 	call	2942c <alt_iniche_init>
  netmain(); 
    1a14:	00246740 	call	24674 <netmain>

  /* Wait for the network stack to be ready before proceeding. 
   * iniche_net_ready indicates that TCP/IP stack is ready, and IP address is obtained.
   */
  while (!iniche_net_ready)
    1a18:	00000206 	br	1a24 <SSSInitialTask+0x28>
    TK_SLEEP(1);
    1a1c:	01000084 	movi	r4,2
    1a20:	0014d080 	call	14d08 <OSTimeDly>
  netmain(); 

  /* Wait for the network stack to be ready before proceeding. 
   * iniche_net_ready indicates that TCP/IP stack is ready, and IP address is obtained.
   */
  while (!iniche_net_ready)
    1a24:	00800174 	movhi	r2,5
    1a28:	1093ba04 	addi	r2,r2,20200
    1a2c:	10800017 	ldw	r2,0(r2)
    1a30:	1005003a 	cmpeq	r2,r2,zero
    1a34:	103ff91e 	bne	r2,zero,1a1c <SSSInitialTask+0x20>

  /* Now that the stack is running, perform the application initialization steps */
  
  /* Application Specific Task Launching Code Block Begin */

  printf("\nSimple Socket Server starting up\n");
    1a38:	01000174 	movhi	r4,5
    1a3c:	212eca04 	addi	r4,r4,-17624
    1a40:	000356c0 	call	356c <puts>

  /* Create the main simple socket server task. */
  TK_NEWTASK(&ssstask);
    1a44:	01000174 	movhi	r4,5
    1a48:	2102cc04 	addi	r4,r4,2864
    1a4c:	00290ec0 	call	290ec <TK_NEWTASK>
  
  /*create os data structures */
  SSSCreateOSDataStructs(); 
    1a50:	0001ec00 	call	1ec0 <SSSCreateOSDataStructs>

  /* create the other tasks */
  SSSCreateTasks();
    1a54:	0001f680 	call	1f68 <SSSCreateTasks>

  /* Application Specific Task Launching Code Block End */
  
  /*This task is deleted because there is no need for it to run again */
  error_code = OSTaskDel(OS_PRIO_SELF);
    1a58:	01003fc4 	movi	r4,255
    1a5c:	0013c100 	call	13c10 <OSTaskDel>
    1a60:	e0bffe05 	stb	r2,-8(fp)
  alt_uCOSIIErrorHandler(error_code, 0);
    1a64:	e13ffe03 	ldbu	r4,-8(fp)
    1a68:	000b883a 	mov	r5,zero
    1a6c:	000059c0 	call	59c <alt_uCOSIIErrorHandler>
  
  while (1); /* Correct Program Flow should never get here */
    1a70:	003fff06 	br	1a70 <SSSInitialTask+0x74>

00001a74 <main>:

/* Main creates a single task, SSSInitialTask, and starts task scheduler.
 */

int main (int argc, char* argv[], char* envp[])
{
    1a74:	defff504 	addi	sp,sp,-44
    1a78:	dfc00a15 	stw	ra,40(sp)
    1a7c:	df000915 	stw	fp,36(sp)
    1a80:	df000904 	addi	fp,sp,36
    1a84:	e13ffd15 	stw	r4,-12(fp)
    1a88:	e17ffe15 	stw	r5,-8(fp)
    1a8c:	e1bfff15 	stw	r6,-4(fp)
  
  INT8U error_code;

  /* Clear the RTOS timer */
  OSTimeSet(0);
    1a90:	0009883a 	mov	r4,zero
    1a94:	001523c0 	call	1523c <OSTimeSet>

  /* SSSInitialTask will initialize the NicheStack
   * TCP/IP Stack and then initialize the rest of the Simple Socket Server example 
   * RTOS structures and tasks. 
   */  
  error_code = OSTaskCreateExt(SSSInitialTask,
    1a98:	018002b4 	movhi	r6,10
    1a9c:	319d3d04 	addi	r6,r6,29940
    1aa0:	00800144 	movi	r2,5
    1aa4:	d8800015 	stw	r2,0(sp)
    1aa8:	008002b4 	movhi	r2,10
    1aac:	10953d04 	addi	r2,r2,21748
    1ab0:	d8800115 	stw	r2,4(sp)
    1ab4:	00820004 	movi	r2,2048
    1ab8:	d8800215 	stw	r2,8(sp)
    1abc:	d8000315 	stw	zero,12(sp)
    1ac0:	d8000415 	stw	zero,16(sp)
    1ac4:	01000034 	movhi	r4,0
    1ac8:	21067f04 	addi	r4,r4,6652
    1acc:	000b883a 	mov	r5,zero
    1ad0:	01c00144 	movi	r7,5
    1ad4:	0013a100 	call	13a10 <OSTaskCreateExt>
    1ad8:	e0bffc05 	stb	r2,-16(fp)
                             SSS_INITIAL_TASK_PRIORITY,
                             SSSInitialTaskStk,
                             TASK_STACKSIZE,
                             NULL,
                             0);
  alt_uCOSIIErrorHandler(error_code, 0);
    1adc:	e13ffc03 	ldbu	r4,-16(fp)
    1ae0:	000b883a 	mov	r5,zero
    1ae4:	000059c0 	call	59c <alt_uCOSIIErrorHandler>

  /*
   * As with all MicroC/OS-II designs, once the initial thread(s) and 
   * associated RTOS resources are declared, we start the RTOS. That's it!
   */
  OSStart();
    1ae8:	000dc3c0 	call	dc3c <OSStart>

  
  while(1); /* Correct Program Flow never gets here. */
    1aec:	003fff06 	br	1aec <main+0x78>

00001af0 <led_bit_toggle>:
 * Development Board which controls 8 LEDs, D0 - D7.
 * 
 */
 
void led_bit_toggle(OS_FLAGS bit)
{
    1af0:	defffc04 	addi	sp,sp,-16
    1af4:	dfc00315 	stw	ra,12(sp)
    1af8:	df000215 	stw	fp,8(sp)
    1afc:	df000204 	addi	fp,sp,8
    1b00:	e13fff0d 	sth	r4,-4(fp)
    OS_FLAGS  led_8_val;
    INT8U error_code;
    
    led_8_val = OSFlagQuery(SSSLEDEventFlag, &error_code);
    1b04:	00800174 	movhi	r2,5
    1b08:	10938a04 	addi	r2,r2,20008
    1b0c:	11000017 	ldw	r4,0(r2)
    1b10:	e17ffe84 	addi	r5,fp,-6
    1b14:	001068c0 	call	1068c <OSFlagQuery>
    1b18:	e0bffe0d 	sth	r2,-8(fp)
    alt_uCOSIIErrorHandler(error_code, 0);
    1b1c:	e0bffe83 	ldbu	r2,-6(fp)
    1b20:	11003fcc 	andi	r4,r2,255
    1b24:	000b883a 	mov	r5,zero
    1b28:	000059c0 	call	59c <alt_uCOSIIErrorHandler>
    if (bit & led_8_val)
    1b2c:	e0ffff0b 	ldhu	r3,-4(fp)
    1b30:	e0bffe0b 	ldhu	r2,-8(fp)
    1b34:	1884703a 	and	r2,r3,r2
    1b38:	10bfffcc 	andi	r2,r2,65535
    1b3c:	1005003a 	cmpeq	r2,r2,zero
    1b40:	10000d1e 	bne	r2,zero,1b78 <led_bit_toggle+0x88>
    {
       led_8_val = OSFlagPost(SSSLEDEventFlag, bit, OS_FLAG_CLR, &error_code);
    1b44:	00800174 	movhi	r2,5
    1b48:	10938a04 	addi	r2,r2,20008
    1b4c:	11000017 	ldw	r4,0(r2)
    1b50:	e17fff0b 	ldhu	r5,-4(fp)
    1b54:	e1fffe84 	addi	r7,fp,-6
    1b58:	000d883a 	mov	r6,zero
    1b5c:	00102e40 	call	102e4 <OSFlagPost>
    1b60:	e0bffe0d 	sth	r2,-8(fp)
       alt_uCOSIIErrorHandler(error_code, 0);
    1b64:	e0bffe83 	ldbu	r2,-6(fp)
    1b68:	11003fcc 	andi	r4,r2,255
    1b6c:	000b883a 	mov	r5,zero
    1b70:	000059c0 	call	59c <alt_uCOSIIErrorHandler>
    1b74:	00000c06 	br	1ba8 <led_bit_toggle+0xb8>
    }
    else
    {
       led_8_val = OSFlagPost(SSSLEDEventFlag, bit, OS_FLAG_SET, &error_code);
    1b78:	00800174 	movhi	r2,5
    1b7c:	10938a04 	addi	r2,r2,20008
    1b80:	11000017 	ldw	r4,0(r2)
    1b84:	e17fff0b 	ldhu	r5,-4(fp)
    1b88:	e1fffe84 	addi	r7,fp,-6
    1b8c:	01800044 	movi	r6,1
    1b90:	00102e40 	call	102e4 <OSFlagPost>
    1b94:	e0bffe0d 	sth	r2,-8(fp)
       alt_uCOSIIErrorHandler(error_code, 0);
    1b98:	e0bffe83 	ldbu	r2,-6(fp)
    1b9c:	11003fcc 	andi	r4,r2,255
    1ba0:	000b883a 	mov	r5,zero
    1ba4:	000059c0 	call	59c <alt_uCOSIIErrorHandler>
       IOWR_ALTERA_AVALON_PIO_DATA(LED_PIO_BASE, led_8_val);
       printf("Value for LED_PIO_BASE set to %d.\n", (INT8U)led_8_val);
    #endif
      
    return;
}
    1ba8:	e037883a 	mov	sp,fp
    1bac:	dfc00117 	ldw	ra,4(sp)
    1bb0:	df000017 	ldw	fp,0(sp)
    1bb4:	dec00204 	addi	sp,sp,8
    1bb8:	f800283a 	ret

00001bbc <UserTask>:
      
 
const char* buffer = "!";
void UserTask(){
    1bbc:	defff604 	addi	sp,sp,-40
    1bc0:	dfc00915 	stw	ra,36(sp)
    1bc4:	df000815 	stw	fp,32(sp)
    1bc8:	df000804 	addi	fp,sp,32
	   );

	    if ( bytes_sent < 0 )
	      printf( "  : %s\n", strerror( errno ) );
*/
      OSTimeDlyHMSM(0,0,1,200);  //   . 
    1bcc:	0009883a 	mov	r4,zero
    1bd0:	000b883a 	mov	r5,zero
    1bd4:	01800044 	movi	r6,1
    1bd8:	01c03204 	movi	r7,200
    1bdc:	0014e540 	call	14e54 <OSTimeDlyHMSM>
  //    printf( " USerTask  %d\n", n++ );
   }
    1be0:	003ffa06 	br	1bcc <UserTask+0x10>

00001be4 <LEDManagementTask>:
 * The task will read the SSSLedCommandQ for an 
 * in-coming message command from the SSSSimpleSocketServerTask. 
 */
 
void LEDManagementTask()
{
    1be4:	defffa04 	addi	sp,sp,-24
    1be8:	dfc00515 	stw	ra,20(sp)
    1bec:	df000415 	stw	fp,16(sp)
    1bf0:	df000404 	addi	fp,sp,16
  INT32U led_command; 
  INT16U led_7_seg_val;
  BOOLEAN SSSLEDLightshowActive;
  INT8U error_code;
  
  led_7_seg_val = 0;
    1bf4:	e03ffc8d 	sth	zero,-14(fp)
  SSSLEDLightshowActive = OS_TRUE;
    1bf8:	00800044 	movi	r2,1
    1bfc:	e0bffc05 	stb	r2,-16(fp)
    1c00:	00000006 	br	1c04 <LEDManagementTask+0x20>
  
  while(1)
  {
    led_command = (INT32U)OSQPend(SSSLEDCommandQ, 0, &error_code);
    1c04:	00800174 	movhi	r2,5
    1c08:	10938804 	addi	r2,r2,20000
    1c0c:	11000017 	ldw	r4,0(r2)
    1c10:	e1bffe04 	addi	r6,fp,-8
    1c14:	000b883a 	mov	r5,zero
    1c18:	0011afc0 	call	11afc <OSQPend>
    1c1c:	e0bffd15 	stw	r2,-12(fp)
   
    alt_uCOSIIErrorHandler(error_code, 0);
    1c20:	e0bffe03 	ldbu	r2,-8(fp)
    1c24:	11003fcc 	andi	r4,r2,255
    1c28:	000b883a 	mov	r5,zero
    1c2c:	000059c0 	call	59c <alt_uCOSIIErrorHandler>
        
    switch (led_command) {
    1c30:	e0bffd17 	ldw	r2,-12(fp)
    1c34:	10bff404 	addi	r2,r2,-48
    1c38:	e0bfff15 	stw	r2,-4(fp)
    1c3c:	e0ffff17 	ldw	r3,-4(fp)
    1c40:	18800928 	cmpgeui	r2,r3,36
    1c44:	103fef1e 	bne	r2,zero,1c04 <LEDManagementTask+0x20>
    1c48:	e13fff17 	ldw	r4,-4(fp)
    1c4c:	e13fff17 	ldw	r4,-4(fp)
    1c50:	2105883a 	add	r2,r4,r4
    1c54:	1087883a 	add	r3,r2,r2
    1c58:	00800034 	movhi	r2,0
    1c5c:	10871b04 	addi	r2,r2,7276
    1c60:	1885883a 	add	r2,r3,r2
    1c64:	10800017 	ldw	r2,0(r2)
    1c68:	1000683a 	jmp	r2
    1c6c:	00001cfc 	xorhi	zero,zero,115
    1c70:	00001d08 	cmpgei	zero,zero,116
    1c74:	00001d14 	movui	zero,116
    1c78:	00001d20 	cmpeqi	zero,zero,116
    1c7c:	00001d2c 	andhi	zero,zero,116
    1c80:	00001d38 	rdprs	zero,zero,116
    1c84:	00001d44 	movi	zero,117
    1c88:	00001d50 	cmplti	zero,zero,117
    1c8c:	00001c04 	movi	zero,112
    1c90:	00001c04 	movi	zero,112
    1c94:	00001c04 	movi	zero,112
    1c98:	00001c04 	movi	zero,112
    1c9c:	00001c04 	movi	zero,112
    1ca0:	00001c04 	movi	zero,112
    1ca4:	00001c04 	movi	zero,112
    1ca8:	00001c04 	movi	zero,112
    1cac:	00001c04 	movi	zero,112
    1cb0:	00001c04 	movi	zero,112
    1cb4:	00001c04 	movi	zero,112
    1cb8:	00001c04 	movi	zero,112
    1cbc:	00001c04 	movi	zero,112
    1cc0:	00001c04 	movi	zero,112
    1cc4:	00001c04 	movi	zero,112
    1cc8:	00001c04 	movi	zero,112
    1ccc:	00001c04 	movi	zero,112
    1cd0:	00001c04 	movi	zero,112
    1cd4:	00001c04 	movi	zero,112
    1cd8:	00001c04 	movi	zero,112
    1cdc:	00001c04 	movi	zero,112
    1ce0:	00001c04 	movi	zero,112
    1ce4:	00001c04 	movi	zero,112
    1ce8:	00001c04 	movi	zero,112
    1cec:	00001c04 	movi	zero,112
    1cf0:	00001c04 	movi	zero,112
    1cf4:	00001c04 	movi	zero,112
    1cf8:	00001d5c 	xori	zero,zero,117
      case CMD_LEDS_BIT_0_TOGGLE:
         led_bit_toggle(BIT_0);
    1cfc:	01000044 	movi	r4,1
    1d00:	0001af00 	call	1af0 <led_bit_toggle>
         break;
    1d04:	003fbf06 	br	1c04 <LEDManagementTask+0x20>
      case CMD_LEDS_BIT_1_TOGGLE:
         led_bit_toggle(BIT_1);
    1d08:	01000084 	movi	r4,2
    1d0c:	0001af00 	call	1af0 <led_bit_toggle>
         break;   
    1d10:	003fbc06 	br	1c04 <LEDManagementTask+0x20>
      case CMD_LEDS_BIT_2_TOGGLE:
         led_bit_toggle(BIT_2);
    1d14:	01000104 	movi	r4,4
    1d18:	0001af00 	call	1af0 <led_bit_toggle>
         break;
    1d1c:	003fb906 	br	1c04 <LEDManagementTask+0x20>
      case CMD_LEDS_BIT_3_TOGGLE:
         led_bit_toggle(BIT_3);
    1d20:	01000204 	movi	r4,8
    1d24:	0001af00 	call	1af0 <led_bit_toggle>
         break;
    1d28:	003fb606 	br	1c04 <LEDManagementTask+0x20>
      case CMD_LEDS_BIT_4_TOGGLE:
         led_bit_toggle(BIT_4);
    1d2c:	01000404 	movi	r4,16
    1d30:	0001af00 	call	1af0 <led_bit_toggle>
         break;
    1d34:	003fb306 	br	1c04 <LEDManagementTask+0x20>
      case CMD_LEDS_BIT_5_TOGGLE:
         led_bit_toggle(BIT_5);
    1d38:	01000804 	movi	r4,32
    1d3c:	0001af00 	call	1af0 <led_bit_toggle>
         break;
    1d40:	003fb006 	br	1c04 <LEDManagementTask+0x20>
      case CMD_LEDS_BIT_6_TOGGLE:
         led_bit_toggle(BIT_6);
    1d44:	01001004 	movi	r4,64
    1d48:	0001af00 	call	1af0 <led_bit_toggle>
         break;
    1d4c:	003fad06 	br	1c04 <LEDManagementTask+0x20>
      case CMD_LEDS_BIT_7_TOGGLE:
         led_bit_toggle(BIT_7);
    1d50:	01002004 	movi	r4,128
    1d54:	0001af00 	call	1af0 <led_bit_toggle>
         break;
    1d58:	003faa06 	br	1c04 <LEDManagementTask+0x20>
         /* The SSSLEDLightshowSem semaphore is checked by LED7SegLightshowTask 
          * each time it updates 7 segment LED displays, U8 and U9.  Grab the 
          * semaphore (pend) away from the lightshow task to toggle the lightshow off, 
          * and give up the semaphore (post) to turn the lightshow back on.  
          */
         if (SSSLEDLightshowActive == OS_FALSE)
    1d5c:	e0bffc03 	ldbu	r2,-16(fp)
    1d60:	1004c03a 	cmpne	r2,r2,zero
    1d64:	10000c1e 	bne	r2,zero,1d98 <LEDManagementTask+0x1b4>
         {
             error_code = OSSemPost(SSSLEDLightshowSem);
    1d68:	00800174 	movhi	r2,5
    1d6c:	10938904 	addi	r2,r2,20004
    1d70:	11000017 	ldw	r4,0(r2)
    1d74:	0012f6c0 	call	12f6c <OSSemPost>
    1d78:	e0bffe05 	stb	r2,-8(fp)
             alt_uCOSIIErrorHandler(error_code, 0);
    1d7c:	e0bffe03 	ldbu	r2,-8(fp)
    1d80:	11003fcc 	andi	r4,r2,255
    1d84:	000b883a 	mov	r5,zero
    1d88:	000059c0 	call	59c <alt_uCOSIIErrorHandler>
             SSSLEDLightshowActive = OS_TRUE;
    1d8c:	00800044 	movi	r2,1
    1d90:	e0bffc05 	stb	r2,-16(fp)
    1d94:	003f9b06 	br	1c04 <LEDManagementTask+0x20>
         }
         else
         {
             OSSemPend(SSSLEDLightshowSem, 0, &error_code);
    1d98:	00800174 	movhi	r2,5
    1d9c:	10938904 	addi	r2,r2,20004
    1da0:	11000017 	ldw	r4,0(r2)
    1da4:	e1bffe04 	addi	r6,fp,-8
    1da8:	000b883a 	mov	r5,zero
    1dac:	0012b740 	call	12b74 <OSSemPend>
             alt_uCOSIIErrorHandler(error_code, 0); 
    1db0:	e0bffe03 	ldbu	r2,-8(fp)
    1db4:	11003fcc 	andi	r4,r2,255
    1db8:	000b883a 	mov	r5,zero
    1dbc:	000059c0 	call	59c <alt_uCOSIIErrorHandler>
             SSSLEDLightshowActive = OS_FALSE;
    1dc0:	e03ffc05 	stb	zero,-16(fp)
         break;
      default:     
        /* Discard unknown LED commands. */
        break;
    } /* switch led_command */
  } /* while(1) */
    1dc4:	003f8f06 	br	1c04 <LEDManagementTask+0x20>

00001dc8 <get_mac_addr>:
*/

NET *ext_net;

int get_mac_addr(NET net, unsigned char mac_addr[6])
{
    1dc8:	defffd04 	addi	sp,sp,-12
    1dcc:	df000215 	stw	fp,8(sp)
    1dd0:	df000204 	addi	fp,sp,8
    1dd4:	e13ffe15 	stw	r4,-8(fp)
    1dd8:	e17fff15 	stw	r5,-4(fp)
    
    mac_addr[0]=0x00;
    1ddc:	e0bfff17 	ldw	r2,-4(fp)
    1de0:	10000005 	stb	zero,0(r2)
    mac_addr[1]=0x25;
    1de4:	e0bfff17 	ldw	r2,-4(fp)
    1de8:	10c00044 	addi	r3,r2,1
    1dec:	00800944 	movi	r2,37
    1df0:	18800005 	stb	r2,0(r3)
    mac_addr[2]=0x02;
    1df4:	e0bfff17 	ldw	r2,-4(fp)
    1df8:	10c00084 	addi	r3,r2,2
    1dfc:	00800084 	movi	r2,2
    1e00:	18800005 	stb	r2,0(r3)
    mac_addr[3]=0x03;
    1e04:	e0bfff17 	ldw	r2,-4(fp)
    1e08:	10c000c4 	addi	r3,r2,3
    1e0c:	008000c4 	movi	r2,3
    1e10:	18800005 	stb	r2,0(r3)
    mac_addr[4]=0x04;
    1e14:	e0bfff17 	ldw	r2,-4(fp)
    1e18:	10c00104 	addi	r3,r2,4
    1e1c:	00800104 	movi	r2,4
    1e20:	18800005 	stb	r2,0(r3)
    mac_addr[5]=0x05;
    1e24:	e0bfff17 	ldw	r2,-4(fp)
    1e28:	10c00144 	addi	r3,r2,5
    1e2c:	00800144 	movi	r2,5
    1e30:	18800005 	stb	r2,0(r3)
    mac_addr[6]=0x06;
    1e34:	e0bfff17 	ldw	r2,-4(fp)
    1e38:	10c00184 	addi	r3,r2,6
    1e3c:	00800184 	movi	r2,6
    1e40:	18800005 	stb	r2,0(r3)

    // net   
    ext_net=net;
    1e44:	e0bffe17 	ldw	r2,-8(fp)
    1e48:	d0a8b815 	stw	r2,-23840(gp)

    return 0;
    1e4c:	0005883a 	mov	r2,zero
}
    1e50:	e037883a 	mov	sp,fp
    1e54:	df000017 	ldw	fp,0(sp)
    1e58:	dec00104 	addi	sp,sp,4
    1e5c:	f800283a 	ret

00001e60 <get_ip_addr>:
int get_ip_addr(alt_iniche_dev *p_dev,
                ip_addr* ipaddr,
                ip_addr* netmask,
                ip_addr* gw,
                int* use_dhcp)
{
    1e60:	defffb04 	addi	sp,sp,-20
    1e64:	df000415 	stw	fp,16(sp)
    1e68:	df000404 	addi	fp,sp,16
    1e6c:	e13ffc15 	stw	r4,-16(fp)
    1e70:	e17ffd15 	stw	r5,-12(fp)
    1e74:	e1bffe15 	stw	r6,-8(fp)
    1e78:	e1ffff15 	stw	r7,-4(fp)

    IP4_ADDR(*ipaddr, 192, 168, 0, 55);
    1e7c:	e0fffd17 	ldw	r3,-12(fp)
    1e80:	008dc074 	movhi	r2,14081
    1e84:	10aa3004 	addi	r2,r2,-22336
    1e88:	18800015 	stw	r2,0(r3)
    IP4_ADDR(*gw, 192, 168, 0, 1);
    1e8c:	e0ffff17 	ldw	r3,-4(fp)
    1e90:	00804074 	movhi	r2,257
    1e94:	10aa3004 	addi	r2,r2,-22336
    1e98:	18800015 	stw	r2,0(r3)
    IP4_ADDR(*netmask, 255, 255, 255, 0);
    1e9c:	e0fffe17 	ldw	r3,-8(fp)
    1ea0:	00804034 	movhi	r2,256
    1ea4:	10bfffc4 	addi	r2,r2,-1
    1ea8:	18800015 	stw	r2,0(r3)
        ip4_addr4(*ipaddr));
#endif // not DHCP_CLIENT

    // Non-standard API: return 1 for success
*/
    return 1;
    1eac:	00800044 	movi	r2,1
}
    1eb0:	e037883a 	mov	sp,fp
    1eb4:	df000017 	ldw	fp,0(sp)
    1eb8:	dec00104 	addi	sp,sp,4
    1ebc:	f800283a 	ret

00001ec0 <SSSCreateOSDataStructs>:
/*
 * Create our MicroC/OS-II resources. All of the resources beginning with 
 * "SSS" are declared in this file, and created in this function.
 */
void SSSCreateOSDataStructs(void)
{
    1ec0:	defffd04 	addi	sp,sp,-12
    1ec4:	dfc00215 	stw	ra,8(sp)
    1ec8:	df000115 	stw	fp,4(sp)
    1ecc:	df000104 	addi	fp,sp,4
  /*
  * Create the resource for our MicroC/OS-II Queue for sending commands 
  * received on the TCP/IP socket from the SSSSimpleSocketServerTask()
  * to the LEDManagementTask().
  */
  SSSLEDCommandQ = OSQCreate(&SSSLEDCommandQTbl[0], SSS_LED_COMMAND_Q_SIZE);
    1ed0:	010002f4 	movhi	r4,11
    1ed4:	21253d04 	addi	r4,r4,-27404
    1ed8:	01400784 	movi	r5,30
    1edc:	00115200 	call	11520 <OSQCreate>
    1ee0:	d0a8b915 	stw	r2,-23836(gp)
  if (!SSSLEDCommandQ)
    1ee4:	d0a8b917 	ldw	r2,-23836(gp)
    1ee8:	1004c03a 	cmpne	r2,r2,zero
    1eec:	1000041e 	bne	r2,zero,1f00 <SSSCreateOSDataStructs+0x40>
  {
     alt_uCOSIIErrorHandler(EXPANDED_DIAGNOSIS_CODE, 
    1ef0:	01003fc4 	movi	r4,255
    1ef4:	01400174 	movhi	r5,5
    1ef8:	296ed504 	addi	r5,r5,-17580
    1efc:	000059c0 	call	59c <alt_uCOSIIErrorHandler>
  * toggle the lightshow off, and gives up the semaphore to turn the lightshow
  * back on.  The LEDTask does this in response to the CMD_LEDS_LIGHTSHOW
  * command sent from the SSSSimpleSocketServerTask when the user sends the 
  * toggle lightshow command over the TCPIP socket.
  */
  SSSLEDLightshowSem = OSSemCreate(1);
    1f00:	01000044 	movi	r4,1
    1f04:	00127c00 	call	127c0 <OSSemCreate>
    1f08:	d0a8ba15 	stw	r2,-23832(gp)
  if (!SSSLEDLightshowSem)
    1f0c:	d0a8ba17 	ldw	r2,-23832(gp)
    1f10:	1004c03a 	cmpne	r2,r2,zero
    1f14:	1000041e 	bne	r2,zero,1f28 <SSSCreateOSDataStructs+0x68>
  {
     alt_uCOSIIErrorHandler(EXPANDED_DIAGNOSIS_CODE, 
    1f18:	01003fc4 	movi	r4,255
    1f1c:	01400174 	movhi	r5,5
    1f20:	296ede04 	addi	r5,r5,-17544
    1f24:	000059c0 	call	59c <alt_uCOSIIErrorHandler>
  
 /*
  * Create our MicroC/OS-II LED Event Flag.  Each flag corresponds to one of
  * the LEDs on the Nios Development board, D0 - D7. 
  */   
  SSSLEDEventFlag = OSFlagCreate(0, &error_code);
    1f28:	0009883a 	mov	r4,zero
    1f2c:	e17fff04 	addi	r5,fp,-4
    1f30:	000f5bc0 	call	f5bc <OSFlagCreate>
    1f34:	d0a8bb15 	stw	r2,-23828(gp)
  if (!SSSLEDEventFlag)
    1f38:	d0a8bb17 	ldw	r2,-23828(gp)
    1f3c:	1004c03a 	cmpne	r2,r2,zero
    1f40:	1000041e 	bne	r2,zero,1f54 <SSSCreateOSDataStructs+0x94>
  {
     alt_uCOSIIErrorHandler(error_code, 0);
    1f44:	e0bfff03 	ldbu	r2,-4(fp)
    1f48:	11003fcc 	andi	r4,r2,255
    1f4c:	000b883a 	mov	r5,zero
    1f50:	000059c0 	call	59c <alt_uCOSIIErrorHandler>
  }
}
    1f54:	e037883a 	mov	sp,fp
    1f58:	dfc00117 	ldw	ra,4(sp)
    1f5c:	df000017 	ldw	fp,0(sp)
    1f60:	dec00204 	addi	sp,sp,8
    1f64:	f800283a 	ret

00001f68 <SSSCreateTasks>:

/* This function creates tasks used in this example which do not use sockets.
 * Tasks which use Interniche sockets must be created with TK_NEWTASK.
 */

void SSSCreateTasks(void){
    1f68:	defffd04 	addi	sp,sp,-12
    1f6c:	df000215 	stw	fp,8(sp)
    1f70:	df000204 	addi	fp,sp,8
                              NULL,
                              0);

   alt_uCOSIIErrorHandler(error_code, 0);
*/
}
    1f74:	e037883a 	mov	sp,fp
    1f78:	df000017 	ldw	fp,0(sp)
    1f7c:	dec00104 	addi	sp,sp,4
    1f80:	f800283a 	ret

00001f84 <sss_reset_connection>:


void sss_reset_connection(SSSConn* conn) {
    1f84:	defffd04 	addi	sp,sp,-12
    1f88:	dfc00215 	stw	ra,8(sp)
    1f8c:	df000115 	stw	fp,4(sp)
    1f90:	df000104 	addi	fp,sp,4
    1f94:	e13fff15 	stw	r4,-4(fp)
  memset(conn, 0, sizeof(SSSConn));
    1f98:	e0bfff17 	ldw	r2,-4(fp)
    1f9c:	1009883a 	mov	r4,r2
    1fa0:	01817c04 	movi	r6,1520
    1fa4:	000b883a 	mov	r5,zero
    1fa8:	000333c0 	call	333c <memset>
  conn->fd = -1;
    1fac:	e0ffff17 	ldw	r3,-4(fp)
    1fb0:	00bfffc4 	movi	r2,-1
    1fb4:	18800115 	stw	r2,4(r3)
  conn->state = READY;
    1fb8:	e0bfff17 	ldw	r2,-4(fp)
    1fbc:	10000015 	stw	zero,0(r2)
  conn->rx_wr_pos = conn->rx_buffer;
    1fc0:	e0bfff17 	ldw	r2,-4(fp)
    1fc4:	10c00304 	addi	r3,r2,12
    1fc8:	e0bfff17 	ldw	r2,-4(fp)
    1fcc:	10c17b15 	stw	r3,1516(r2)
  conn->rx_rd_pos = conn->rx_buffer;
    1fd0:	e0bfff17 	ldw	r2,-4(fp)
    1fd4:	10c00304 	addi	r3,r2,12
    1fd8:	e0bfff17 	ldw	r2,-4(fp)
    1fdc:	10c17a15 	stw	r3,1512(r2)
  return;
}
    1fe0:	e037883a 	mov	sp,fp
    1fe4:	dfc00117 	ldw	ra,4(sp)
    1fe8:	df000017 	ldw	fp,0(sp)
    1fec:	dec00204 	addi	sp,sp,8
    1ff0:	f800283a 	ret

00001ff4 <GetNextData>:

void GetNextData(  unsigned char *Data, int Len){
    1ff4:	defffa04 	addi	sp,sp,-24
    1ff8:	df000515 	stw	fp,20(sp)
    1ffc:	df000504 	addi	fp,sp,20
    2000:	e13ffe15 	stw	r4,-8(fp)
    2004:	e17fff15 	stw	r5,-4(fp)
   int i,kol=Len>>2;;
    2008:	e0bfff17 	ldw	r2,-4(fp)
    200c:	1005d0ba 	srai	r2,r2,2
    2010:	e0bffc15 	stw	r2,-16(fp)
   int *D=(int*)Data;
    2014:	e0bffe17 	ldw	r2,-8(fp)
    2018:	e0bffb15 	stw	r2,-20(fp)

	for(i=0;i<kol;i++){
    201c:	e03ffd15 	stw	zero,-12(fp)
    2020:	00000b06 	br	2050 <GetNextData+0x5c>
	    D[i]=i;
    2024:	e0bffd17 	ldw	r2,-12(fp)
    2028:	1085883a 	add	r2,r2,r2
    202c:	1085883a 	add	r2,r2,r2
    2030:	1007883a 	mov	r3,r2
    2034:	e0bffb17 	ldw	r2,-20(fp)
    2038:	1887883a 	add	r3,r3,r2
    203c:	e0bffd17 	ldw	r2,-12(fp)
    2040:	18800015 	stw	r2,0(r3)

void GetNextData(  unsigned char *Data, int Len){
   int i,kol=Len>>2;;
   int *D=(int*)Data;

	for(i=0;i<kol;i++){
    2044:	e0bffd17 	ldw	r2,-12(fp)
    2048:	10800044 	addi	r2,r2,1
    204c:	e0bffd15 	stw	r2,-12(fp)
    2050:	e0fffd17 	ldw	r3,-12(fp)
    2054:	e0bffc17 	ldw	r2,-16(fp)
    2058:	18bff216 	blt	r3,r2,2024 <GetNextData+0x30>
	    D[i]=i;
	}
}
    205c:	e037883a 	mov	sp,fp
    2060:	df000017 	ldw	fp,0(sp)
    2064:	dec00104 	addi	sp,sp,4
    2068:	f800283a 	ret

0000206c <SSSSimpleSocketServerTask>:


void SSSSimpleSocketServerTask(){
    206c:	deffc804 	addi	sp,sp,-224
    2070:	dfc03715 	stw	ra,220(sp)
    2074:	df003615 	stw	fp,216(sp)
    2078:	dc803515 	stw	r18,212(sp)
    207c:	dc403415 	stw	r17,208(sp)
    2080:	dc003315 	stw	r16,204(sp)
    2084:	df003304 	addi	fp,sp,204

	long  SocketIn ;
    struct sockaddr_in SenderAddr;
    int SenderAddrSize = sizeof (SenderAddr);
    2088:	00800404 	movi	r2,16
    208c:	e0bfdf15 	stw	r2,-132(fp)
     char *bf,*bf1;
     unsigned char *DataBuffer;
     int * bufer;


     bf=(char *)npalloc(BlockSize*1024*10+44);
    2090:	01002834 	movhi	r4,160
    2094:	21000b04 	addi	r4,r4,44
    2098:	00297480 	call	29748 <npalloc>
    209c:	e0bfd215 	stw	r2,-184(fp)
     bf1=(char *)npalloc(2000);
    20a0:	0101f404 	movi	r4,2000
    20a4:	00297480 	call	29748 <npalloc>
    20a8:	e0bfd115 	stw	r2,-188(fp)
     bufer=(int*)bf;
    20ac:	e0bfd217 	ldw	r2,-184(fp)
    20b0:	e0bfcf15 	stw	r2,-196(fp)

  OSTimeDlyHMSM(0,0,2,0); //   
    20b4:	0009883a 	mov	r4,zero
    20b8:	000b883a 	mov	r5,zero
    20bc:	01800084 	movi	r6,2
    20c0:	000f883a 	mov	r7,zero
    20c4:	0014e540 	call	14e54 <OSTimeDlyHMSM>



  SocketIn=t_socket (AF_INET, SOCK_DGRAM, 0 ); //    UDP 
    20c8:	01000084 	movi	r4,2
    20cc:	01400084 	movi	r5,2
    20d0:	000d883a 	mov	r6,zero
    20d4:	002bd880 	call	2bd88 <t_socket>
    20d8:	e0bfda15 	stw	r2,-152(fp)
  SenderAddr.sin_family = AF_INET;
    20dc:	00800084 	movi	r2,2
    20e0:	e0bfdb0d 	sth	r2,-148(fp)
  SenderAddr.sin_port = htons((54036));  //    
    20e4:	008534c4 	movi	r2,5331
    20e8:	e0bfdb8d 	sth	r2,-146(fp)
  SenderAddr.sin_addr.s_addr = htonl(INADDR_ANY);
    20ec:	e03fdc15 	stw	zero,-144(fp)
  bind(SocketIn,  &SenderAddr, sizeof(SenderAddr));
    20f0:	e17fdb04 	addi	r5,fp,-148
    20f4:	e13fda17 	ldw	r4,-152(fp)
    20f8:	01800404 	movi	r6,16
    20fc:	002be180 	call	2be18 <t_bind>


  i=0;
    2100:	e03fd615 	stw	zero,-168(fp)
  InitUDP();
    2104:	00012500 	call	1250 <InitUDP>
  InitADC();
    2108:	00002080 	call	208 <InitADC>
  for(k=0;k<1000;k++) bf[k]=0x55;
    210c:	e03fd715 	stw	zero,-164(fp)
    2110:	00000906 	br	2138 <SSSSimpleSocketServerTask+0xcc>
    2114:	e0bfd717 	ldw	r2,-164(fp)
    2118:	1007883a 	mov	r3,r2
    211c:	e0bfd217 	ldw	r2,-184(fp)
    2120:	1887883a 	add	r3,r3,r2
    2124:	00801544 	movi	r2,85
    2128:	18800005 	stb	r2,0(r3)
    212c:	e0bfd717 	ldw	r2,-164(fp)
    2130:	10800044 	addi	r2,r2,1
    2134:	e0bfd715 	stw	r2,-164(fp)
    2138:	e0bfd717 	ldw	r2,-164(fp)
    213c:	1080fa10 	cmplti	r2,r2,1000
    2140:	103ff41e 	bne	r2,zero,2114 <SSSSimpleSocketServerTask+0xa8>
	 SendUDP( (char *)bf  , BlockSize*32, ext_net);
    2144:	e13fd217 	ldw	r4,-184(fp)
    2148:	00800174 	movhi	r2,5
    214c:	10938704 	addi	r2,r2,19996
    2150:	11800017 	ldw	r6,0(r2)
    2154:	01600014 	movui	r5,32768
    2158:	00019740 	call	1974 <SendUDP>

  while(1)  {

	   CommandLen=t_recvfrom( SocketIn, RecvBuf ,128 , 0, (struct sockaddr_in * )&SenderAddr,  &SenderAddrSize);
    215c:	e17fe004 	addi	r5,fp,-128
    2160:	e0bfdb04 	addi	r2,fp,-148
    2164:	d8800015 	stw	r2,0(sp)
    2168:	e0bfdf04 	addi	r2,fp,-132
    216c:	d8800115 	stw	r2,4(sp)
    2170:	e13fda17 	ldw	r4,-152(fp)
    2174:	01802004 	movi	r6,128
    2178:	000f883a 	mov	r7,zero
    217c:	002ccac0 	call	2ccac <t_recvfrom>
    2180:	e0bfd915 	stw	r2,-156(fp)
	   printf("Start  \n" );
    2184:	01000174 	movhi	r4,5
    2188:	212ee804 	addi	r4,r4,-17504
    218c:	000356c0 	call	356c <puts>
	   //  

	   for(k=0;;k++){
    2190:	e03fd715 	stw	zero,-164(fp)
		 //  CommandLen=t_recvfrom( SocketIn, RecvBuf ,128 , 0, (struct sockaddr_in * )&SenderAddr,  &SenderAddrSize);
		   printf("Reseived   %d  bytes\n", CommandLen      );
    2194:	01000174 	movhi	r4,5
    2198:	212eea04 	addi	r4,r4,-17496
    219c:	e17fd917 	ldw	r5,-156(fp)
    21a0:	00034540 	call	3454 <printf>
		  timeStart=OSTimeGet();
    21a4:	00151d80 	call	151d8 <OSTimeGet>
    21a8:	e0bfd415 	stw	r2,-176(fp)
	      for(i=0;i<20;i++){
    21ac:	e03fd615 	stw	zero,-168(fp)
    21b0:	00000706 	br	21d0 <SSSSimpleSocketServerTask+0x164>
	    	 // printf("Time = %d \n", i     );
	    	 // ADCToMem(bf,32*BlockSize);
              //SendUDP( (alt_u8 *)bf  , BlockSize*32, ext_net);
	    	  //hack_send(ext_net,(alt_u8 *) bf, BlockSize*32 );
	    	  ADCToUDPM(200);
    21b4:	01003204 	movi	r4,200
    21b8:	00003180 	call	318 <ADCToUDPM>
	    	  OSTimeDly(1);
    21bc:	01000044 	movi	r4,1
    21c0:	0014d080 	call	14d08 <OSTimeDly>

	   for(k=0;;k++){
		 //  CommandLen=t_recvfrom( SocketIn, RecvBuf ,128 , 0, (struct sockaddr_in * )&SenderAddr,  &SenderAddrSize);
		   printf("Reseived   %d  bytes\n", CommandLen      );
		  timeStart=OSTimeGet();
	      for(i=0;i<20;i++){
    21c4:	e0bfd617 	ldw	r2,-168(fp)
    21c8:	10800044 	addi	r2,r2,1
    21cc:	e0bfd615 	stw	r2,-168(fp)
    21d0:	e0bfd617 	ldw	r2,-168(fp)
    21d4:	10800510 	cmplti	r2,r2,20
    21d8:	103ff61e 	bne	r2,zero,21b4 <SSSSimpleSocketServerTask+0x148>
              //SendUDP( (alt_u8 *)bf  , BlockSize*32, ext_net);
	    	  //hack_send(ext_net,(alt_u8 *) bf, BlockSize*32 );
	    	  ADCToUDPM(200);
	    	  OSTimeDly(1);
	      }
          timeStop=OSTimeGet();
    21dc:	00151d80 	call	151d8 <OSTimeGet>
    21e0:	e0bfd315 	stw	r2,-180(fp)
		  printf("Time = %d  Speed=%f    %d\n", ( timeStop-timeStart ), i*8192*4*200.0/( timeStop-timeStart )   ,k   );
    21e4:	e0ffd317 	ldw	r3,-180(fp)
    21e8:	e0bfd417 	ldw	r2,-176(fp)
    21ec:	18a5c83a 	sub	r18,r3,r2
    21f0:	e0bfd617 	ldw	r2,-168(fp)
    21f4:	100893fa 	slli	r4,r2,15
    21f8:	00028c40 	call	28c4 <__floatsidf>
    21fc:	100b883a 	mov	r5,r2
    2200:	180d883a 	mov	r6,r3
    2204:	2809883a 	mov	r4,r5
    2208:	300b883a 	mov	r5,r6
    220c:	000d883a 	mov	r6,zero
    2210:	01d01a74 	movhi	r7,16489
    2214:	00022a80 	call	22a8 <__muldf3>
    2218:	1009883a 	mov	r4,r2
    221c:	180b883a 	mov	r5,r3
    2220:	2021883a 	mov	r16,r4
    2224:	2823883a 	mov	r17,r5
    2228:	e0ffd317 	ldw	r3,-180(fp)
    222c:	e0bfd417 	ldw	r2,-176(fp)
    2230:	1889c83a 	sub	r4,r3,r2
    2234:	00029bc0 	call	29bc <__floatunsidf>
    2238:	100f883a 	mov	r7,r2
    223c:	1811883a 	mov	r8,r3
    2240:	8009883a 	mov	r4,r16
    2244:	880b883a 	mov	r5,r17
    2248:	380d883a 	mov	r6,r7
    224c:	400f883a 	mov	r7,r8
    2250:	000266c0 	call	266c <__divdf3>
    2254:	1009883a 	mov	r4,r2
    2258:	180b883a 	mov	r5,r3
    225c:	2005883a 	mov	r2,r4
    2260:	2807883a 	mov	r3,r5
    2264:	e13fd717 	ldw	r4,-164(fp)
    2268:	d9000015 	stw	r4,0(sp)
    226c:	01000174 	movhi	r4,5
    2270:	212ef004 	addi	r4,r4,-17472
    2274:	900b883a 	mov	r5,r18
    2278:	100d883a 	mov	r6,r2
    227c:	180f883a 	mov	r7,r3
    2280:	00034540 	call	3454 <printf>

   	      OSTimeDlyHMSM(0,0,0,200);
    2284:	0009883a 	mov	r4,zero
    2288:	000b883a 	mov	r5,zero
    228c:	000d883a 	mov	r6,zero
    2290:	01c03204 	movi	r7,200
    2294:	0014e540 	call	14e54 <OSTimeDlyHMSM>

	   CommandLen=t_recvfrom( SocketIn, RecvBuf ,128 , 0, (struct sockaddr_in * )&SenderAddr,  &SenderAddrSize);
	   printf("Start  \n" );
	   //  

	   for(k=0;;k++){
    2298:	e0bfd717 	ldw	r2,-164(fp)
    229c:	10800044 	addi	r2,r2,1
    22a0:	e0bfd715 	stw	r2,-164(fp)
	      }
          timeStop=OSTimeGet();
		  printf("Time = %d  Speed=%f    %d\n", ( timeStop-timeStart ), i*8192*4*200.0/( timeStop-timeStart )   ,k   );

   	      OSTimeDlyHMSM(0,0,0,200);
	   }
    22a4:	003fbb06 	br	2194 <SSSSimpleSocketServerTask+0x128>

000022a8 <__muldf3>:
    22a8:	deffe004 	addi	sp,sp,-128
    22ac:	dc401815 	stw	r17,96(sp)
    22b0:	dc400404 	addi	r17,sp,16
    22b4:	2011883a 	mov	r8,r4
    22b8:	2813883a 	mov	r9,r5
    22bc:	dc001715 	stw	r16,92(sp)
    22c0:	d809883a 	mov	r4,sp
    22c4:	880b883a 	mov	r5,r17
    22c8:	dc000904 	addi	r16,sp,36
    22cc:	dfc01f15 	stw	ra,124(sp)
    22d0:	da400115 	stw	r9,4(sp)
    22d4:	d9c00315 	stw	r7,12(sp)
    22d8:	da000015 	stw	r8,0(sp)
    22dc:	d9800215 	stw	r6,8(sp)
    22e0:	ddc01e15 	stw	r23,120(sp)
    22e4:	dd801d15 	stw	r22,116(sp)
    22e8:	dd401c15 	stw	r21,112(sp)
    22ec:	dd001b15 	stw	r20,108(sp)
    22f0:	dcc01a15 	stw	r19,104(sp)
    22f4:	dc801915 	stw	r18,100(sp)
    22f8:	00030c80 	call	30c8 <__unpack_d>
    22fc:	d9000204 	addi	r4,sp,8
    2300:	800b883a 	mov	r5,r16
    2304:	00030c80 	call	30c8 <__unpack_d>
    2308:	d9000417 	ldw	r4,16(sp)
    230c:	00800044 	movi	r2,1
    2310:	1100102e 	bgeu	r2,r4,2354 <__muldf3+0xac>
    2314:	d8c00917 	ldw	r3,36(sp)
    2318:	10c0062e 	bgeu	r2,r3,2334 <__muldf3+0x8c>
    231c:	00800104 	movi	r2,4
    2320:	20800a26 	beq	r4,r2,234c <__muldf3+0xa4>
    2324:	1880cc26 	beq	r3,r2,2658 <__muldf3+0x3b0>
    2328:	00800084 	movi	r2,2
    232c:	20800926 	beq	r4,r2,2354 <__muldf3+0xac>
    2330:	1880191e 	bne	r3,r2,2398 <__muldf3+0xf0>
    2334:	d8c00a17 	ldw	r3,40(sp)
    2338:	d8800517 	ldw	r2,20(sp)
    233c:	8009883a 	mov	r4,r16
    2340:	10c4c03a 	cmpne	r2,r2,r3
    2344:	d8800a15 	stw	r2,40(sp)
    2348:	00000706 	br	2368 <__muldf3+0xc0>
    234c:	00800084 	movi	r2,2
    2350:	1880c326 	beq	r3,r2,2660 <__muldf3+0x3b8>
    2354:	d8800517 	ldw	r2,20(sp)
    2358:	d8c00a17 	ldw	r3,40(sp)
    235c:	8809883a 	mov	r4,r17
    2360:	10c4c03a 	cmpne	r2,r2,r3
    2364:	d8800515 	stw	r2,20(sp)
    2368:	0002db40 	call	2db4 <__pack_d>
    236c:	dfc01f17 	ldw	ra,124(sp)
    2370:	ddc01e17 	ldw	r23,120(sp)
    2374:	dd801d17 	ldw	r22,116(sp)
    2378:	dd401c17 	ldw	r21,112(sp)
    237c:	dd001b17 	ldw	r20,108(sp)
    2380:	dcc01a17 	ldw	r19,104(sp)
    2384:	dc801917 	ldw	r18,100(sp)
    2388:	dc401817 	ldw	r17,96(sp)
    238c:	dc001717 	ldw	r16,92(sp)
    2390:	dec02004 	addi	sp,sp,128
    2394:	f800283a 	ret
    2398:	dd800717 	ldw	r22,28(sp)
    239c:	dc800c17 	ldw	r18,48(sp)
    23a0:	002b883a 	mov	r21,zero
    23a4:	0023883a 	mov	r17,zero
    23a8:	a80b883a 	mov	r5,r21
    23ac:	b00d883a 	mov	r6,r22
    23b0:	880f883a 	mov	r7,r17
    23b4:	ddc00817 	ldw	r23,32(sp)
    23b8:	dcc00d17 	ldw	r19,52(sp)
    23bc:	9009883a 	mov	r4,r18
    23c0:	0002c9c0 	call	2c9c <__muldi3>
    23c4:	001b883a 	mov	r13,zero
    23c8:	680f883a 	mov	r7,r13
    23cc:	b009883a 	mov	r4,r22
    23d0:	000b883a 	mov	r5,zero
    23d4:	980d883a 	mov	r6,r19
    23d8:	b82d883a 	mov	r22,r23
    23dc:	002f883a 	mov	r23,zero
    23e0:	db401615 	stw	r13,88(sp)
    23e4:	d8801315 	stw	r2,76(sp)
    23e8:	d8c01415 	stw	r3,80(sp)
    23ec:	dcc01515 	stw	r19,84(sp)
    23f0:	0002c9c0 	call	2c9c <__muldi3>
    23f4:	b00d883a 	mov	r6,r22
    23f8:	000b883a 	mov	r5,zero
    23fc:	9009883a 	mov	r4,r18
    2400:	b80f883a 	mov	r7,r23
    2404:	1021883a 	mov	r16,r2
    2408:	1823883a 	mov	r17,r3
    240c:	0002c9c0 	call	2c9c <__muldi3>
    2410:	8085883a 	add	r2,r16,r2
    2414:	140d803a 	cmpltu	r6,r2,r16
    2418:	88c7883a 	add	r3,r17,r3
    241c:	30cd883a 	add	r6,r6,r3
    2420:	1029883a 	mov	r20,r2
    2424:	302b883a 	mov	r21,r6
    2428:	da801317 	ldw	r10,76(sp)
    242c:	dac01417 	ldw	r11,80(sp)
    2430:	db001517 	ldw	r12,84(sp)
    2434:	db401617 	ldw	r13,88(sp)
    2438:	3440612e 	bgeu	r6,r17,25c0 <__muldf3+0x318>
    243c:	0009883a 	mov	r4,zero
    2440:	5105883a 	add	r2,r10,r4
    2444:	128d803a 	cmpltu	r6,r2,r10
    2448:	5d07883a 	add	r3,r11,r20
    244c:	30cd883a 	add	r6,r6,r3
    2450:	0021883a 	mov	r16,zero
    2454:	04400044 	movi	r17,1
    2458:	1025883a 	mov	r18,r2
    245c:	3027883a 	mov	r19,r6
    2460:	32c06236 	bltu	r6,r11,25ec <__muldf3+0x344>
    2464:	59807a26 	beq	r11,r6,2650 <__muldf3+0x3a8>
    2468:	680b883a 	mov	r5,r13
    246c:	b80f883a 	mov	r7,r23
    2470:	6009883a 	mov	r4,r12
    2474:	b00d883a 	mov	r6,r22
    2478:	0002c9c0 	call	2c9c <__muldi3>
    247c:	1009883a 	mov	r4,r2
    2480:	000f883a 	mov	r7,zero
    2484:	1545883a 	add	r2,r2,r21
    2488:	1111803a 	cmpltu	r8,r2,r4
    248c:	19c7883a 	add	r3,r3,r7
    2490:	40c7883a 	add	r3,r8,r3
    2494:	88cb883a 	add	r5,r17,r3
    2498:	d8c00617 	ldw	r3,24(sp)
    249c:	8089883a 	add	r4,r16,r2
    24a0:	d8800b17 	ldw	r2,44(sp)
    24a4:	18c00104 	addi	r3,r3,4
    24a8:	240d803a 	cmpltu	r6,r4,r16
    24ac:	10c7883a 	add	r3,r2,r3
    24b0:	2013883a 	mov	r9,r4
    24b4:	d8800a17 	ldw	r2,40(sp)
    24b8:	d9000517 	ldw	r4,20(sp)
    24bc:	314d883a 	add	r6,r6,r5
    24c0:	3015883a 	mov	r10,r6
    24c4:	2088c03a 	cmpne	r4,r4,r2
    24c8:	00880034 	movhi	r2,8192
    24cc:	10bfffc4 	addi	r2,r2,-1
    24d0:	d9000f15 	stw	r4,60(sp)
    24d4:	d8c01015 	stw	r3,64(sp)
    24d8:	1180162e 	bgeu	r2,r6,2534 <__muldf3+0x28c>
    24dc:	1811883a 	mov	r8,r3
    24e0:	101f883a 	mov	r15,r2
    24e4:	980497fa 	slli	r2,r19,31
    24e8:	9016d07a 	srli	r11,r18,1
    24ec:	500697fa 	slli	r3,r10,31
    24f0:	480cd07a 	srli	r6,r9,1
    24f4:	500ed07a 	srli	r7,r10,1
    24f8:	12d6b03a 	or	r11,r2,r11
    24fc:	00800044 	movi	r2,1
    2500:	198cb03a 	or	r6,r3,r6
    2504:	4888703a 	and	r4,r9,r2
    2508:	9818d07a 	srli	r12,r19,1
    250c:	001b883a 	mov	r13,zero
    2510:	03a00034 	movhi	r14,32768
    2514:	3013883a 	mov	r9,r6
    2518:	3815883a 	mov	r10,r7
    251c:	4091883a 	add	r8,r8,r2
    2520:	20000226 	beq	r4,zero,252c <__muldf3+0x284>
    2524:	5b64b03a 	or	r18,r11,r13
    2528:	63a6b03a 	or	r19,r12,r14
    252c:	7abfed36 	bltu	r15,r10,24e4 <__muldf3+0x23c>
    2530:	da001015 	stw	r8,64(sp)
    2534:	00840034 	movhi	r2,4096
    2538:	10bfffc4 	addi	r2,r2,-1
    253c:	12801436 	bltu	r2,r10,2590 <__muldf3+0x2e8>
    2540:	da001017 	ldw	r8,64(sp)
    2544:	101f883a 	mov	r15,r2
    2548:	4a45883a 	add	r2,r9,r9
    254c:	124d803a 	cmpltu	r6,r2,r9
    2550:	5287883a 	add	r3,r10,r10
    2554:	9497883a 	add	r11,r18,r18
    2558:	5c8f803a 	cmpltu	r7,r11,r18
    255c:	9cd9883a 	add	r12,r19,r19
    2560:	01000044 	movi	r4,1
    2564:	30cd883a 	add	r6,r6,r3
    2568:	3b0f883a 	add	r7,r7,r12
    256c:	423fffc4 	addi	r8,r8,-1
    2570:	1013883a 	mov	r9,r2
    2574:	3015883a 	mov	r10,r6
    2578:	111ab03a 	or	r13,r2,r4
    257c:	98003016 	blt	r19,zero,2640 <__muldf3+0x398>
    2580:	5825883a 	mov	r18,r11
    2584:	3827883a 	mov	r19,r7
    2588:	7abfef2e 	bgeu	r15,r10,2548 <__muldf3+0x2a0>
    258c:	da001015 	stw	r8,64(sp)
    2590:	00803fc4 	movi	r2,255
    2594:	488e703a 	and	r7,r9,r2
    2598:	00802004 	movi	r2,128
    259c:	0007883a 	mov	r3,zero
    25a0:	0011883a 	mov	r8,zero
    25a4:	38801826 	beq	r7,r2,2608 <__muldf3+0x360>
    25a8:	008000c4 	movi	r2,3
    25ac:	d9000e04 	addi	r4,sp,56
    25b0:	da801215 	stw	r10,72(sp)
    25b4:	d8800e15 	stw	r2,56(sp)
    25b8:	da401115 	stw	r9,68(sp)
    25bc:	003f6a06 	br	2368 <__muldf3+0xc0>
    25c0:	89802126 	beq	r17,r6,2648 <__muldf3+0x3a0>
    25c4:	0009883a 	mov	r4,zero
    25c8:	5105883a 	add	r2,r10,r4
    25cc:	128d803a 	cmpltu	r6,r2,r10
    25d0:	5d07883a 	add	r3,r11,r20
    25d4:	30cd883a 	add	r6,r6,r3
    25d8:	0021883a 	mov	r16,zero
    25dc:	0023883a 	mov	r17,zero
    25e0:	1025883a 	mov	r18,r2
    25e4:	3027883a 	mov	r19,r6
    25e8:	32ff9e2e 	bgeu	r6,r11,2464 <__muldf3+0x1bc>
    25ec:	00800044 	movi	r2,1
    25f0:	8089883a 	add	r4,r16,r2
    25f4:	240d803a 	cmpltu	r6,r4,r16
    25f8:	344d883a 	add	r6,r6,r17
    25fc:	2021883a 	mov	r16,r4
    2600:	3023883a 	mov	r17,r6
    2604:	003f9806 	br	2468 <__muldf3+0x1c0>
    2608:	403fe71e 	bne	r8,zero,25a8 <__muldf3+0x300>
    260c:	01004004 	movi	r4,256
    2610:	4904703a 	and	r2,r9,r4
    2614:	10c4b03a 	or	r2,r2,r3
    2618:	103fe31e 	bne	r2,zero,25a8 <__muldf3+0x300>
    261c:	94c4b03a 	or	r2,r18,r19
    2620:	103fe126 	beq	r2,zero,25a8 <__muldf3+0x300>
    2624:	49c5883a 	add	r2,r9,r7
    2628:	1251803a 	cmpltu	r8,r2,r9
    262c:	4291883a 	add	r8,r8,r10
    2630:	013fc004 	movi	r4,-256
    2634:	1112703a 	and	r9,r2,r4
    2638:	4015883a 	mov	r10,r8
    263c:	003fda06 	br	25a8 <__muldf3+0x300>
    2640:	6813883a 	mov	r9,r13
    2644:	003fce06 	br	2580 <__muldf3+0x2d8>
    2648:	143f7c36 	bltu	r2,r16,243c <__muldf3+0x194>
    264c:	003fdd06 	br	25c4 <__muldf3+0x31c>
    2650:	12bf852e 	bgeu	r2,r10,2468 <__muldf3+0x1c0>
    2654:	003fe506 	br	25ec <__muldf3+0x344>
    2658:	00800084 	movi	r2,2
    265c:	20bf351e 	bne	r4,r2,2334 <__muldf3+0x8c>
    2660:	01000174 	movhi	r4,5
    2664:	212eff04 	addi	r4,r4,-17412
    2668:	003f3f06 	br	2368 <__muldf3+0xc0>

0000266c <__divdf3>:
    266c:	deffed04 	addi	sp,sp,-76
    2670:	dcc01115 	stw	r19,68(sp)
    2674:	dcc00404 	addi	r19,sp,16
    2678:	2011883a 	mov	r8,r4
    267c:	2813883a 	mov	r9,r5
    2680:	dc000e15 	stw	r16,56(sp)
    2684:	d809883a 	mov	r4,sp
    2688:	980b883a 	mov	r5,r19
    268c:	dc000904 	addi	r16,sp,36
    2690:	dfc01215 	stw	ra,72(sp)
    2694:	da400115 	stw	r9,4(sp)
    2698:	d9c00315 	stw	r7,12(sp)
    269c:	da000015 	stw	r8,0(sp)
    26a0:	d9800215 	stw	r6,8(sp)
    26a4:	dc801015 	stw	r18,64(sp)
    26a8:	dc400f15 	stw	r17,60(sp)
    26ac:	00030c80 	call	30c8 <__unpack_d>
    26b0:	d9000204 	addi	r4,sp,8
    26b4:	800b883a 	mov	r5,r16
    26b8:	00030c80 	call	30c8 <__unpack_d>
    26bc:	d9000417 	ldw	r4,16(sp)
    26c0:	00800044 	movi	r2,1
    26c4:	11000b2e 	bgeu	r2,r4,26f4 <__divdf3+0x88>
    26c8:	d9400917 	ldw	r5,36(sp)
    26cc:	1140762e 	bgeu	r2,r5,28a8 <__divdf3+0x23c>
    26d0:	d8800517 	ldw	r2,20(sp)
    26d4:	d8c00a17 	ldw	r3,40(sp)
    26d8:	01800104 	movi	r6,4
    26dc:	10c4f03a 	xor	r2,r2,r3
    26e0:	d8800515 	stw	r2,20(sp)
    26e4:	21800226 	beq	r4,r6,26f0 <__divdf3+0x84>
    26e8:	00800084 	movi	r2,2
    26ec:	2080141e 	bne	r4,r2,2740 <__divdf3+0xd4>
    26f0:	29000926 	beq	r5,r4,2718 <__divdf3+0xac>
    26f4:	9809883a 	mov	r4,r19
    26f8:	0002db40 	call	2db4 <__pack_d>
    26fc:	dfc01217 	ldw	ra,72(sp)
    2700:	dcc01117 	ldw	r19,68(sp)
    2704:	dc801017 	ldw	r18,64(sp)
    2708:	dc400f17 	ldw	r17,60(sp)
    270c:	dc000e17 	ldw	r16,56(sp)
    2710:	dec01304 	addi	sp,sp,76
    2714:	f800283a 	ret
    2718:	01000174 	movhi	r4,5
    271c:	212eff04 	addi	r4,r4,-17412
    2720:	0002db40 	call	2db4 <__pack_d>
    2724:	dfc01217 	ldw	ra,72(sp)
    2728:	dcc01117 	ldw	r19,68(sp)
    272c:	dc801017 	ldw	r18,64(sp)
    2730:	dc400f17 	ldw	r17,60(sp)
    2734:	dc000e17 	ldw	r16,56(sp)
    2738:	dec01304 	addi	sp,sp,76
    273c:	f800283a 	ret
    2740:	29805b26 	beq	r5,r6,28b0 <__divdf3+0x244>
    2744:	28802d26 	beq	r5,r2,27fc <__divdf3+0x190>
    2748:	d8c00617 	ldw	r3,24(sp)
    274c:	d8800b17 	ldw	r2,44(sp)
    2750:	d9c00817 	ldw	r7,32(sp)
    2754:	dc400d17 	ldw	r17,52(sp)
    2758:	188bc83a 	sub	r5,r3,r2
    275c:	d9800717 	ldw	r6,28(sp)
    2760:	dc000c17 	ldw	r16,48(sp)
    2764:	d9400615 	stw	r5,24(sp)
    2768:	3c403836 	bltu	r7,r17,284c <__divdf3+0x1e0>
    276c:	89c03626 	beq	r17,r7,2848 <__divdf3+0x1dc>
    2770:	0015883a 	mov	r10,zero
    2774:	001d883a 	mov	r14,zero
    2778:	02c40034 	movhi	r11,4096
    277c:	001f883a 	mov	r15,zero
    2780:	003f883a 	mov	ra,zero
    2784:	04800f44 	movi	r18,61
    2788:	00000f06 	br	27c8 <__divdf3+0x15c>
    278c:	601d883a 	mov	r14,r12
    2790:	681f883a 	mov	r15,r13
    2794:	400d883a 	mov	r6,r8
    2798:	100f883a 	mov	r7,r2
    279c:	3191883a 	add	r8,r6,r6
    27a0:	5808d07a 	srli	r4,r11,1
    27a4:	4185803a 	cmpltu	r2,r8,r6
    27a8:	39d3883a 	add	r9,r7,r7
    27ac:	28c6b03a 	or	r3,r5,r3
    27b0:	1245883a 	add	r2,r2,r9
    27b4:	1815883a 	mov	r10,r3
    27b8:	2017883a 	mov	r11,r4
    27bc:	400d883a 	mov	r6,r8
    27c0:	100f883a 	mov	r7,r2
    27c4:	fc801726 	beq	ra,r18,2824 <__divdf3+0x1b8>
    27c8:	580a97fa 	slli	r5,r11,31
    27cc:	5006d07a 	srli	r3,r10,1
    27d0:	ffc00044 	addi	ra,ra,1
    27d4:	3c7ff136 	bltu	r7,r17,279c <__divdf3+0x130>
    27d8:	3411c83a 	sub	r8,r6,r16
    27dc:	3205803a 	cmpltu	r2,r6,r8
    27e0:	3c53c83a 	sub	r9,r7,r17
    27e4:	7298b03a 	or	r12,r14,r10
    27e8:	7adab03a 	or	r13,r15,r11
    27ec:	4885c83a 	sub	r2,r9,r2
    27f0:	89ffe61e 	bne	r17,r7,278c <__divdf3+0x120>
    27f4:	343fe936 	bltu	r6,r16,279c <__divdf3+0x130>
    27f8:	003fe406 	br	278c <__divdf3+0x120>
    27fc:	9809883a 	mov	r4,r19
    2800:	d9800415 	stw	r6,16(sp)
    2804:	0002db40 	call	2db4 <__pack_d>
    2808:	dfc01217 	ldw	ra,72(sp)
    280c:	dcc01117 	ldw	r19,68(sp)
    2810:	dc801017 	ldw	r18,64(sp)
    2814:	dc400f17 	ldw	r17,60(sp)
    2818:	dc000e17 	ldw	r16,56(sp)
    281c:	dec01304 	addi	sp,sp,76
    2820:	f800283a 	ret
    2824:	00803fc4 	movi	r2,255
    2828:	7090703a 	and	r8,r14,r2
    282c:	00802004 	movi	r2,128
    2830:	0007883a 	mov	r3,zero
    2834:	0013883a 	mov	r9,zero
    2838:	40800d26 	beq	r8,r2,2870 <__divdf3+0x204>
    283c:	dbc00815 	stw	r15,32(sp)
    2840:	db800715 	stw	r14,28(sp)
    2844:	003fab06 	br	26f4 <__divdf3+0x88>
    2848:	343fc92e 	bgeu	r6,r16,2770 <__divdf3+0x104>
    284c:	3185883a 	add	r2,r6,r6
    2850:	1189803a 	cmpltu	r4,r2,r6
    2854:	39c7883a 	add	r3,r7,r7
    2858:	20c9883a 	add	r4,r4,r3
    285c:	297fffc4 	addi	r5,r5,-1
    2860:	100d883a 	mov	r6,r2
    2864:	200f883a 	mov	r7,r4
    2868:	d9400615 	stw	r5,24(sp)
    286c:	003fc006 	br	2770 <__divdf3+0x104>
    2870:	483ff21e 	bne	r9,zero,283c <__divdf3+0x1d0>
    2874:	01004004 	movi	r4,256
    2878:	7104703a 	and	r2,r14,r4
    287c:	10c4b03a 	or	r2,r2,r3
    2880:	103fee1e 	bne	r2,zero,283c <__divdf3+0x1d0>
    2884:	31c4b03a 	or	r2,r6,r7
    2888:	103fec26 	beq	r2,zero,283c <__divdf3+0x1d0>
    288c:	7205883a 	add	r2,r14,r8
    2890:	1391803a 	cmpltu	r8,r2,r14
    2894:	43d1883a 	add	r8,r8,r15
    2898:	013fc004 	movi	r4,-256
    289c:	111c703a 	and	r14,r2,r4
    28a0:	401f883a 	mov	r15,r8
    28a4:	003fe506 	br	283c <__divdf3+0x1d0>
    28a8:	8009883a 	mov	r4,r16
    28ac:	003f9206 	br	26f8 <__divdf3+0x8c>
    28b0:	9809883a 	mov	r4,r19
    28b4:	d8000715 	stw	zero,28(sp)
    28b8:	d8000815 	stw	zero,32(sp)
    28bc:	d8000615 	stw	zero,24(sp)
    28c0:	003f8d06 	br	26f8 <__divdf3+0x8c>

000028c4 <__floatsidf>:
    28c4:	2006d7fa 	srli	r3,r4,31
    28c8:	defff604 	addi	sp,sp,-40
    28cc:	008000c4 	movi	r2,3
    28d0:	dfc00915 	stw	ra,36(sp)
    28d4:	dcc00815 	stw	r19,32(sp)
    28d8:	dc800715 	stw	r18,28(sp)
    28dc:	dc400615 	stw	r17,24(sp)
    28e0:	dc000515 	stw	r16,20(sp)
    28e4:	d8800015 	stw	r2,0(sp)
    28e8:	d8c00115 	stw	r3,4(sp)
    28ec:	20000f1e 	bne	r4,zero,292c <__floatsidf+0x68>
    28f0:	00800084 	movi	r2,2
    28f4:	d8800015 	stw	r2,0(sp)
    28f8:	d809883a 	mov	r4,sp
    28fc:	0002db40 	call	2db4 <__pack_d>
    2900:	1009883a 	mov	r4,r2
    2904:	180b883a 	mov	r5,r3
    2908:	2005883a 	mov	r2,r4
    290c:	2807883a 	mov	r3,r5
    2910:	dfc00917 	ldw	ra,36(sp)
    2914:	dcc00817 	ldw	r19,32(sp)
    2918:	dc800717 	ldw	r18,28(sp)
    291c:	dc400617 	ldw	r17,24(sp)
    2920:	dc000517 	ldw	r16,20(sp)
    2924:	dec00a04 	addi	sp,sp,40
    2928:	f800283a 	ret
    292c:	00800f04 	movi	r2,60
    2930:	1807003a 	cmpeq	r3,r3,zero
    2934:	d8800215 	stw	r2,8(sp)
    2938:	18001126 	beq	r3,zero,2980 <__floatsidf+0xbc>
    293c:	0027883a 	mov	r19,zero
    2940:	2025883a 	mov	r18,r4
    2944:	d9000315 	stw	r4,12(sp)
    2948:	dcc00415 	stw	r19,16(sp)
    294c:	0002d340 	call	2d34 <__clzsi2>
    2950:	11000744 	addi	r4,r2,29
    2954:	013fe80e 	bge	zero,r4,28f8 <__floatsidf+0x34>
    2958:	10bfff44 	addi	r2,r2,-3
    295c:	10000c16 	blt	r2,zero,2990 <__floatsidf+0xcc>
    2960:	90a2983a 	sll	r17,r18,r2
    2964:	0021883a 	mov	r16,zero
    2968:	d8800217 	ldw	r2,8(sp)
    296c:	dc400415 	stw	r17,16(sp)
    2970:	dc000315 	stw	r16,12(sp)
    2974:	1105c83a 	sub	r2,r2,r4
    2978:	d8800215 	stw	r2,8(sp)
    297c:	003fde06 	br	28f8 <__floatsidf+0x34>
    2980:	00a00034 	movhi	r2,32768
    2984:	20800a26 	beq	r4,r2,29b0 <__floatsidf+0xec>
    2988:	0109c83a 	sub	r4,zero,r4
    298c:	003feb06 	br	293c <__floatsidf+0x78>
    2990:	9006d07a 	srli	r3,r18,1
    2994:	008007c4 	movi	r2,31
    2998:	1105c83a 	sub	r2,r2,r4
    299c:	1886d83a 	srl	r3,r3,r2
    29a0:	9922983a 	sll	r17,r19,r4
    29a4:	9120983a 	sll	r16,r18,r4
    29a8:	1c62b03a 	or	r17,r3,r17
    29ac:	003fee06 	br	2968 <__floatsidf+0xa4>
    29b0:	0009883a 	mov	r4,zero
    29b4:	01707834 	movhi	r5,49632
    29b8:	003fd306 	br	2908 <__floatsidf+0x44>

000029bc <__floatunsidf>:
    29bc:	defff204 	addi	sp,sp,-56
    29c0:	dfc00d15 	stw	ra,52(sp)
    29c4:	ddc00c15 	stw	r23,48(sp)
    29c8:	dd800b15 	stw	r22,44(sp)
    29cc:	dd400a15 	stw	r21,40(sp)
    29d0:	dd000915 	stw	r20,36(sp)
    29d4:	dcc00815 	stw	r19,32(sp)
    29d8:	dc800715 	stw	r18,28(sp)
    29dc:	dc400615 	stw	r17,24(sp)
    29e0:	dc000515 	stw	r16,20(sp)
    29e4:	d8000115 	stw	zero,4(sp)
    29e8:	20000f1e 	bne	r4,zero,2a28 <__floatunsidf+0x6c>
    29ec:	00800084 	movi	r2,2
    29f0:	d8800015 	stw	r2,0(sp)
    29f4:	d809883a 	mov	r4,sp
    29f8:	0002db40 	call	2db4 <__pack_d>
    29fc:	dfc00d17 	ldw	ra,52(sp)
    2a00:	ddc00c17 	ldw	r23,48(sp)
    2a04:	dd800b17 	ldw	r22,44(sp)
    2a08:	dd400a17 	ldw	r21,40(sp)
    2a0c:	dd000917 	ldw	r20,36(sp)
    2a10:	dcc00817 	ldw	r19,32(sp)
    2a14:	dc800717 	ldw	r18,28(sp)
    2a18:	dc400617 	ldw	r17,24(sp)
    2a1c:	dc000517 	ldw	r16,20(sp)
    2a20:	dec00e04 	addi	sp,sp,56
    2a24:	f800283a 	ret
    2a28:	008000c4 	movi	r2,3
    2a2c:	00c00f04 	movi	r3,60
    2a30:	002f883a 	mov	r23,zero
    2a34:	202d883a 	mov	r22,r4
    2a38:	d8800015 	stw	r2,0(sp)
    2a3c:	d8c00215 	stw	r3,8(sp)
    2a40:	d9000315 	stw	r4,12(sp)
    2a44:	ddc00415 	stw	r23,16(sp)
    2a48:	0002d340 	call	2d34 <__clzsi2>
    2a4c:	12400744 	addi	r9,r2,29
    2a50:	48000b16 	blt	r9,zero,2a80 <__floatunsidf+0xc4>
    2a54:	483fe726 	beq	r9,zero,29f4 <__floatunsidf+0x38>
    2a58:	10bfff44 	addi	r2,r2,-3
    2a5c:	10002e16 	blt	r2,zero,2b18 <__floatunsidf+0x15c>
    2a60:	b0a2983a 	sll	r17,r22,r2
    2a64:	0021883a 	mov	r16,zero
    2a68:	d8800217 	ldw	r2,8(sp)
    2a6c:	dc400415 	stw	r17,16(sp)
    2a70:	dc000315 	stw	r16,12(sp)
    2a74:	1245c83a 	sub	r2,r2,r9
    2a78:	d8800215 	stw	r2,8(sp)
    2a7c:	003fdd06 	br	29f4 <__floatunsidf+0x38>
    2a80:	0255c83a 	sub	r10,zero,r9
    2a84:	51bff804 	addi	r6,r10,-32
    2a88:	30001b16 	blt	r6,zero,2af8 <__floatunsidf+0x13c>
    2a8c:	b9a8d83a 	srl	r20,r23,r6
    2a90:	002b883a 	mov	r21,zero
    2a94:	000f883a 	mov	r7,zero
    2a98:	01000044 	movi	r4,1
    2a9c:	0011883a 	mov	r8,zero
    2aa0:	30002516 	blt	r6,zero,2b38 <__floatunsidf+0x17c>
    2aa4:	21a6983a 	sll	r19,r4,r6
    2aa8:	0025883a 	mov	r18,zero
    2aac:	00bfffc4 	movi	r2,-1
    2ab0:	9089883a 	add	r4,r18,r2
    2ab4:	988b883a 	add	r5,r19,r2
    2ab8:	248d803a 	cmpltu	r6,r4,r18
    2abc:	314b883a 	add	r5,r6,r5
    2ac0:	b104703a 	and	r2,r22,r4
    2ac4:	b946703a 	and	r3,r23,r5
    2ac8:	10c4b03a 	or	r2,r2,r3
    2acc:	10000226 	beq	r2,zero,2ad8 <__floatunsidf+0x11c>
    2ad0:	01c00044 	movi	r7,1
    2ad4:	0011883a 	mov	r8,zero
    2ad8:	d9000217 	ldw	r4,8(sp)
    2adc:	a1c4b03a 	or	r2,r20,r7
    2ae0:	aa06b03a 	or	r3,r21,r8
    2ae4:	2249c83a 	sub	r4,r4,r9
    2ae8:	d8c00415 	stw	r3,16(sp)
    2aec:	d9000215 	stw	r4,8(sp)
    2af0:	d8800315 	stw	r2,12(sp)
    2af4:	003fbf06 	br	29f4 <__floatunsidf+0x38>
    2af8:	bdc7883a 	add	r3,r23,r23
    2afc:	008007c4 	movi	r2,31
    2b00:	1285c83a 	sub	r2,r2,r10
    2b04:	1886983a 	sll	r3,r3,r2
    2b08:	b2a8d83a 	srl	r20,r22,r10
    2b0c:	baaad83a 	srl	r21,r23,r10
    2b10:	1d28b03a 	or	r20,r3,r20
    2b14:	003fdf06 	br	2a94 <__floatunsidf+0xd8>
    2b18:	b006d07a 	srli	r3,r22,1
    2b1c:	008007c4 	movi	r2,31
    2b20:	1245c83a 	sub	r2,r2,r9
    2b24:	1886d83a 	srl	r3,r3,r2
    2b28:	ba62983a 	sll	r17,r23,r9
    2b2c:	b260983a 	sll	r16,r22,r9
    2b30:	1c62b03a 	or	r17,r3,r17
    2b34:	003fcc06 	br	2a68 <__floatunsidf+0xac>
    2b38:	2006d07a 	srli	r3,r4,1
    2b3c:	008007c4 	movi	r2,31
    2b40:	1285c83a 	sub	r2,r2,r10
    2b44:	18a6d83a 	srl	r19,r3,r2
    2b48:	22a4983a 	sll	r18,r4,r10
    2b4c:	003fd706 	br	2aac <__floatunsidf+0xf0>

00002b50 <udivmodsi4>:
    2b50:	29001b2e 	bgeu	r5,r4,2bc0 <udivmodsi4+0x70>
    2b54:	28001a16 	blt	r5,zero,2bc0 <udivmodsi4+0x70>
    2b58:	00800044 	movi	r2,1
    2b5c:	0007883a 	mov	r3,zero
    2b60:	01c007c4 	movi	r7,31
    2b64:	00000306 	br	2b74 <udivmodsi4+0x24>
    2b68:	19c01326 	beq	r3,r7,2bb8 <udivmodsi4+0x68>
    2b6c:	18c00044 	addi	r3,r3,1
    2b70:	28000416 	blt	r5,zero,2b84 <udivmodsi4+0x34>
    2b74:	294b883a 	add	r5,r5,r5
    2b78:	1085883a 	add	r2,r2,r2
    2b7c:	293ffa36 	bltu	r5,r4,2b68 <udivmodsi4+0x18>
    2b80:	10000d26 	beq	r2,zero,2bb8 <udivmodsi4+0x68>
    2b84:	0007883a 	mov	r3,zero
    2b88:	21400236 	bltu	r4,r5,2b94 <udivmodsi4+0x44>
    2b8c:	2149c83a 	sub	r4,r4,r5
    2b90:	1886b03a 	or	r3,r3,r2
    2b94:	1004d07a 	srli	r2,r2,1
    2b98:	280ad07a 	srli	r5,r5,1
    2b9c:	103ffa1e 	bne	r2,zero,2b88 <udivmodsi4+0x38>
    2ba0:	30000226 	beq	r6,zero,2bac <udivmodsi4+0x5c>
    2ba4:	2005883a 	mov	r2,r4
    2ba8:	f800283a 	ret
    2bac:	1809883a 	mov	r4,r3
    2bb0:	2005883a 	mov	r2,r4
    2bb4:	f800283a 	ret
    2bb8:	0007883a 	mov	r3,zero
    2bbc:	003ff806 	br	2ba0 <udivmodsi4+0x50>
    2bc0:	00800044 	movi	r2,1
    2bc4:	0007883a 	mov	r3,zero
    2bc8:	003fef06 	br	2b88 <udivmodsi4+0x38>

00002bcc <__divsi3>:
    2bcc:	defffe04 	addi	sp,sp,-8
    2bd0:	dc000015 	stw	r16,0(sp)
    2bd4:	dfc00115 	stw	ra,4(sp)
    2bd8:	0021883a 	mov	r16,zero
    2bdc:	20000c16 	blt	r4,zero,2c10 <__divsi3+0x44>
    2be0:	000d883a 	mov	r6,zero
    2be4:	28000e16 	blt	r5,zero,2c20 <__divsi3+0x54>
    2be8:	0002b500 	call	2b50 <udivmodsi4>
    2bec:	1007883a 	mov	r3,r2
    2bf0:	8005003a 	cmpeq	r2,r16,zero
    2bf4:	1000011e 	bne	r2,zero,2bfc <__divsi3+0x30>
    2bf8:	00c7c83a 	sub	r3,zero,r3
    2bfc:	1805883a 	mov	r2,r3
    2c00:	dfc00117 	ldw	ra,4(sp)
    2c04:	dc000017 	ldw	r16,0(sp)
    2c08:	dec00204 	addi	sp,sp,8
    2c0c:	f800283a 	ret
    2c10:	0109c83a 	sub	r4,zero,r4
    2c14:	04000044 	movi	r16,1
    2c18:	000d883a 	mov	r6,zero
    2c1c:	283ff20e 	bge	r5,zero,2be8 <__divsi3+0x1c>
    2c20:	014bc83a 	sub	r5,zero,r5
    2c24:	8021003a 	cmpeq	r16,r16,zero
    2c28:	003fef06 	br	2be8 <__divsi3+0x1c>

00002c2c <__modsi3>:
    2c2c:	deffff04 	addi	sp,sp,-4
    2c30:	dfc00015 	stw	ra,0(sp)
    2c34:	01800044 	movi	r6,1
    2c38:	2807883a 	mov	r3,r5
    2c3c:	20000416 	blt	r4,zero,2c50 <__modsi3+0x24>
    2c40:	28000c16 	blt	r5,zero,2c74 <__modsi3+0x48>
    2c44:	dfc00017 	ldw	ra,0(sp)
    2c48:	dec00104 	addi	sp,sp,4
    2c4c:	0002b501 	jmpi	2b50 <udivmodsi4>
    2c50:	0109c83a 	sub	r4,zero,r4
    2c54:	28000b16 	blt	r5,zero,2c84 <__modsi3+0x58>
    2c58:	180b883a 	mov	r5,r3
    2c5c:	01800044 	movi	r6,1
    2c60:	0002b500 	call	2b50 <udivmodsi4>
    2c64:	0085c83a 	sub	r2,zero,r2
    2c68:	dfc00017 	ldw	ra,0(sp)
    2c6c:	dec00104 	addi	sp,sp,4
    2c70:	f800283a 	ret
    2c74:	014bc83a 	sub	r5,zero,r5
    2c78:	dfc00017 	ldw	ra,0(sp)
    2c7c:	dec00104 	addi	sp,sp,4
    2c80:	0002b501 	jmpi	2b50 <udivmodsi4>
    2c84:	0147c83a 	sub	r3,zero,r5
    2c88:	003ff306 	br	2c58 <__modsi3+0x2c>

00002c8c <__udivsi3>:
    2c8c:	000d883a 	mov	r6,zero
    2c90:	0002b501 	jmpi	2b50 <udivmodsi4>

00002c94 <__umodsi3>:
    2c94:	01800044 	movi	r6,1
    2c98:	0002b501 	jmpi	2b50 <udivmodsi4>

00002c9c <__muldi3>:
    2c9c:	2011883a 	mov	r8,r4
    2ca0:	427fffcc 	andi	r9,r8,65535
    2ca4:	4018d43a 	srli	r12,r8,16
    2ca8:	32bfffcc 	andi	r10,r6,65535
    2cac:	3016d43a 	srli	r11,r6,16
    2cb0:	4a85383a 	mul	r2,r9,r10
    2cb4:	6295383a 	mul	r10,r12,r10
    2cb8:	4ad3383a 	mul	r9,r9,r11
    2cbc:	113fffcc 	andi	r4,r2,65535
    2cc0:	1004d43a 	srli	r2,r2,16
    2cc4:	4a93883a 	add	r9,r9,r10
    2cc8:	3807883a 	mov	r3,r7
    2ccc:	1245883a 	add	r2,r2,r9
    2cd0:	280f883a 	mov	r7,r5
    2cd4:	180b883a 	mov	r5,r3
    2cd8:	1006943a 	slli	r3,r2,16
    2cdc:	defffd04 	addi	sp,sp,-12
    2ce0:	dc800215 	stw	r18,8(sp)
    2ce4:	1907883a 	add	r3,r3,r4
    2ce8:	dc400115 	stw	r17,4(sp)
    2cec:	dc000015 	stw	r16,0(sp)
    2cf0:	4165383a 	mul	r18,r8,r5
    2cf4:	31e3383a 	mul	r17,r6,r7
    2cf8:	1012d43a 	srli	r9,r2,16
    2cfc:	62d9383a 	mul	r12,r12,r11
    2d00:	181f883a 	mov	r15,r3
    2d04:	1280022e 	bgeu	r2,r10,2d10 <__muldi3+0x74>
    2d08:	00800074 	movhi	r2,1
    2d0c:	6099883a 	add	r12,r12,r2
    2d10:	624d883a 	add	r6,r12,r9
    2d14:	9187883a 	add	r3,r18,r6
    2d18:	88c7883a 	add	r3,r17,r3
    2d1c:	7805883a 	mov	r2,r15
    2d20:	dc800217 	ldw	r18,8(sp)
    2d24:	dc400117 	ldw	r17,4(sp)
    2d28:	dc000017 	ldw	r16,0(sp)
    2d2c:	dec00304 	addi	sp,sp,12
    2d30:	f800283a 	ret

00002d34 <__clzsi2>:
    2d34:	00bfffd4 	movui	r2,65535
    2d38:	11000e36 	bltu	r2,r4,2d74 <__clzsi2+0x40>
    2d3c:	00803fc4 	movi	r2,255
    2d40:	01400204 	movi	r5,8
    2d44:	0007883a 	mov	r3,zero
    2d48:	11001036 	bltu	r2,r4,2d8c <__clzsi2+0x58>
    2d4c:	000b883a 	mov	r5,zero
    2d50:	20c6d83a 	srl	r3,r4,r3
    2d54:	00800174 	movhi	r2,5
    2d58:	10af0404 	addi	r2,r2,-17392
    2d5c:	1887883a 	add	r3,r3,r2
    2d60:	18800003 	ldbu	r2,0(r3)
    2d64:	00c00804 	movi	r3,32
    2d68:	2885883a 	add	r2,r5,r2
    2d6c:	1885c83a 	sub	r2,r3,r2
    2d70:	f800283a 	ret
    2d74:	01400404 	movi	r5,16
    2d78:	00804034 	movhi	r2,256
    2d7c:	10bfffc4 	addi	r2,r2,-1
    2d80:	2807883a 	mov	r3,r5
    2d84:	113ff22e 	bgeu	r2,r4,2d50 <__clzsi2+0x1c>
    2d88:	01400604 	movi	r5,24
    2d8c:	2807883a 	mov	r3,r5
    2d90:	20c6d83a 	srl	r3,r4,r3
    2d94:	00800174 	movhi	r2,5
    2d98:	10af0404 	addi	r2,r2,-17392
    2d9c:	1887883a 	add	r3,r3,r2
    2da0:	18800003 	ldbu	r2,0(r3)
    2da4:	00c00804 	movi	r3,32
    2da8:	2885883a 	add	r2,r5,r2
    2dac:	1885c83a 	sub	r2,r3,r2
    2db0:	f800283a 	ret

00002db4 <__pack_d>:
    2db4:	20c00017 	ldw	r3,0(r4)
    2db8:	defffd04 	addi	sp,sp,-12
    2dbc:	dc000015 	stw	r16,0(sp)
    2dc0:	dc800215 	stw	r18,8(sp)
    2dc4:	dc400115 	stw	r17,4(sp)
    2dc8:	00800044 	movi	r2,1
    2dcc:	22000317 	ldw	r8,12(r4)
    2dd0:	001f883a 	mov	r15,zero
    2dd4:	22400417 	ldw	r9,16(r4)
    2dd8:	24000117 	ldw	r16,4(r4)
    2ddc:	10c0552e 	bgeu	r2,r3,2f34 <__pack_d+0x180>
    2de0:	00800104 	movi	r2,4
    2de4:	18804f26 	beq	r3,r2,2f24 <__pack_d+0x170>
    2de8:	00800084 	movi	r2,2
    2dec:	18800226 	beq	r3,r2,2df8 <__pack_d+0x44>
    2df0:	4244b03a 	or	r2,r8,r9
    2df4:	10001a1e 	bne	r2,zero,2e60 <__pack_d+0xac>
    2df8:	000d883a 	mov	r6,zero
    2dfc:	000f883a 	mov	r7,zero
    2e00:	0011883a 	mov	r8,zero
    2e04:	00800434 	movhi	r2,16
    2e08:	10bfffc4 	addi	r2,r2,-1
    2e0c:	301d883a 	mov	r14,r6
    2e10:	3884703a 	and	r2,r7,r2
    2e14:	400a953a 	slli	r5,r8,20
    2e18:	79bffc2c 	andhi	r6,r15,65520
    2e1c:	308cb03a 	or	r6,r6,r2
    2e20:	00e00434 	movhi	r3,32784
    2e24:	18ffffc4 	addi	r3,r3,-1
    2e28:	800497fa 	slli	r2,r16,31
    2e2c:	30c6703a 	and	r3,r6,r3
    2e30:	1946b03a 	or	r3,r3,r5
    2e34:	01600034 	movhi	r5,32768
    2e38:	297fffc4 	addi	r5,r5,-1
    2e3c:	194a703a 	and	r5,r3,r5
    2e40:	288ab03a 	or	r5,r5,r2
    2e44:	2807883a 	mov	r3,r5
    2e48:	7005883a 	mov	r2,r14
    2e4c:	dc800217 	ldw	r18,8(sp)
    2e50:	dc400117 	ldw	r17,4(sp)
    2e54:	dc000017 	ldw	r16,0(sp)
    2e58:	dec00304 	addi	sp,sp,12
    2e5c:	f800283a 	ret
    2e60:	21000217 	ldw	r4,8(r4)
    2e64:	00bf0084 	movi	r2,-1022
    2e68:	20803f16 	blt	r4,r2,2f68 <__pack_d+0x1b4>
    2e6c:	0080ffc4 	movi	r2,1023
    2e70:	11002c16 	blt	r2,r4,2f24 <__pack_d+0x170>
    2e74:	00803fc4 	movi	r2,255
    2e78:	408c703a 	and	r6,r8,r2
    2e7c:	00802004 	movi	r2,128
    2e80:	0007883a 	mov	r3,zero
    2e84:	000f883a 	mov	r7,zero
    2e88:	2280ffc4 	addi	r10,r4,1023
    2e8c:	30801e26 	beq	r6,r2,2f08 <__pack_d+0x154>
    2e90:	00801fc4 	movi	r2,127
    2e94:	4089883a 	add	r4,r8,r2
    2e98:	220d803a 	cmpltu	r6,r4,r8
    2e9c:	324d883a 	add	r6,r6,r9
    2ea0:	2011883a 	mov	r8,r4
    2ea4:	3013883a 	mov	r9,r6
    2ea8:	00880034 	movhi	r2,8192
    2eac:	10bfffc4 	addi	r2,r2,-1
    2eb0:	12400d36 	bltu	r2,r9,2ee8 <__pack_d+0x134>
    2eb4:	4804963a 	slli	r2,r9,24
    2eb8:	400cd23a 	srli	r6,r8,8
    2ebc:	480ed23a 	srli	r7,r9,8
    2ec0:	013fffc4 	movi	r4,-1
    2ec4:	118cb03a 	or	r6,r2,r6
    2ec8:	01400434 	movhi	r5,16
    2ecc:	297fffc4 	addi	r5,r5,-1
    2ed0:	3104703a 	and	r2,r6,r4
    2ed4:	3946703a 	and	r3,r7,r5
    2ed8:	5201ffcc 	andi	r8,r10,2047
    2edc:	100d883a 	mov	r6,r2
    2ee0:	180f883a 	mov	r7,r3
    2ee4:	003fc706 	br	2e04 <__pack_d+0x50>
    2ee8:	480897fa 	slli	r4,r9,31
    2eec:	4004d07a 	srli	r2,r8,1
    2ef0:	4806d07a 	srli	r3,r9,1
    2ef4:	52800044 	addi	r10,r10,1
    2ef8:	2084b03a 	or	r2,r4,r2
    2efc:	1011883a 	mov	r8,r2
    2f00:	1813883a 	mov	r9,r3
    2f04:	003feb06 	br	2eb4 <__pack_d+0x100>
    2f08:	383fe11e 	bne	r7,zero,2e90 <__pack_d+0xdc>
    2f0c:	01004004 	movi	r4,256
    2f10:	4104703a 	and	r2,r8,r4
    2f14:	10c4b03a 	or	r2,r2,r3
    2f18:	103fe326 	beq	r2,zero,2ea8 <__pack_d+0xf4>
    2f1c:	3005883a 	mov	r2,r6
    2f20:	003fdc06 	br	2e94 <__pack_d+0xe0>
    2f24:	000d883a 	mov	r6,zero
    2f28:	000f883a 	mov	r7,zero
    2f2c:	0201ffc4 	movi	r8,2047
    2f30:	003fb406 	br	2e04 <__pack_d+0x50>
    2f34:	0005883a 	mov	r2,zero
    2f38:	00c00234 	movhi	r3,8
    2f3c:	408cb03a 	or	r6,r8,r2
    2f40:	48ceb03a 	or	r7,r9,r3
    2f44:	013fffc4 	movi	r4,-1
    2f48:	01400434 	movhi	r5,16
    2f4c:	297fffc4 	addi	r5,r5,-1
    2f50:	3104703a 	and	r2,r6,r4
    2f54:	3946703a 	and	r3,r7,r5
    2f58:	100d883a 	mov	r6,r2
    2f5c:	180f883a 	mov	r7,r3
    2f60:	0201ffc4 	movi	r8,2047
    2f64:	003fa706 	br	2e04 <__pack_d+0x50>
    2f68:	1109c83a 	sub	r4,r2,r4
    2f6c:	00800e04 	movi	r2,56
    2f70:	11004316 	blt	r2,r4,3080 <__pack_d+0x2cc>
    2f74:	21fff804 	addi	r7,r4,-32
    2f78:	38004516 	blt	r7,zero,3090 <__pack_d+0x2dc>
    2f7c:	49d8d83a 	srl	r12,r9,r7
    2f80:	001b883a 	mov	r13,zero
    2f84:	0023883a 	mov	r17,zero
    2f88:	01400044 	movi	r5,1
    2f8c:	0025883a 	mov	r18,zero
    2f90:	38004716 	blt	r7,zero,30b0 <__pack_d+0x2fc>
    2f94:	29d6983a 	sll	r11,r5,r7
    2f98:	0015883a 	mov	r10,zero
    2f9c:	00bfffc4 	movi	r2,-1
    2fa0:	5089883a 	add	r4,r10,r2
    2fa4:	588b883a 	add	r5,r11,r2
    2fa8:	228d803a 	cmpltu	r6,r4,r10
    2fac:	314b883a 	add	r5,r6,r5
    2fb0:	4104703a 	and	r2,r8,r4
    2fb4:	4946703a 	and	r3,r9,r5
    2fb8:	10c4b03a 	or	r2,r2,r3
    2fbc:	10000226 	beq	r2,zero,2fc8 <__pack_d+0x214>
    2fc0:	04400044 	movi	r17,1
    2fc4:	0025883a 	mov	r18,zero
    2fc8:	00803fc4 	movi	r2,255
    2fcc:	644eb03a 	or	r7,r12,r17
    2fd0:	3892703a 	and	r9,r7,r2
    2fd4:	00802004 	movi	r2,128
    2fd8:	6c90b03a 	or	r8,r13,r18
    2fdc:	0015883a 	mov	r10,zero
    2fe0:	48801626 	beq	r9,r2,303c <__pack_d+0x288>
    2fe4:	01001fc4 	movi	r4,127
    2fe8:	3905883a 	add	r2,r7,r4
    2fec:	11cd803a 	cmpltu	r6,r2,r7
    2ff0:	320d883a 	add	r6,r6,r8
    2ff4:	100f883a 	mov	r7,r2
    2ff8:	00840034 	movhi	r2,4096
    2ffc:	10bfffc4 	addi	r2,r2,-1
    3000:	3011883a 	mov	r8,r6
    3004:	0007883a 	mov	r3,zero
    3008:	11801b36 	bltu	r2,r6,3078 <__pack_d+0x2c4>
    300c:	4004963a 	slli	r2,r8,24
    3010:	3808d23a 	srli	r4,r7,8
    3014:	400ad23a 	srli	r5,r8,8
    3018:	1813883a 	mov	r9,r3
    301c:	1108b03a 	or	r4,r2,r4
    3020:	00bfffc4 	movi	r2,-1
    3024:	00c00434 	movhi	r3,16
    3028:	18ffffc4 	addi	r3,r3,-1
    302c:	208c703a 	and	r6,r4,r2
    3030:	28ce703a 	and	r7,r5,r3
    3034:	4a01ffcc 	andi	r8,r9,2047
    3038:	003f7206 	br	2e04 <__pack_d+0x50>
    303c:	503fe91e 	bne	r10,zero,2fe4 <__pack_d+0x230>
    3040:	01004004 	movi	r4,256
    3044:	3904703a 	and	r2,r7,r4
    3048:	0007883a 	mov	r3,zero
    304c:	10c4b03a 	or	r2,r2,r3
    3050:	10000626 	beq	r2,zero,306c <__pack_d+0x2b8>
    3054:	3a45883a 	add	r2,r7,r9
    3058:	11cd803a 	cmpltu	r6,r2,r7
    305c:	320d883a 	add	r6,r6,r8
    3060:	100f883a 	mov	r7,r2
    3064:	3011883a 	mov	r8,r6
    3068:	0007883a 	mov	r3,zero
    306c:	00840034 	movhi	r2,4096
    3070:	10bfffc4 	addi	r2,r2,-1
    3074:	123fe52e 	bgeu	r2,r8,300c <__pack_d+0x258>
    3078:	00c00044 	movi	r3,1
    307c:	003fe306 	br	300c <__pack_d+0x258>
    3080:	0009883a 	mov	r4,zero
    3084:	0013883a 	mov	r9,zero
    3088:	000b883a 	mov	r5,zero
    308c:	003fe406 	br	3020 <__pack_d+0x26c>
    3090:	4a47883a 	add	r3,r9,r9
    3094:	008007c4 	movi	r2,31
    3098:	1105c83a 	sub	r2,r2,r4
    309c:	1886983a 	sll	r3,r3,r2
    30a0:	4118d83a 	srl	r12,r8,r4
    30a4:	491ad83a 	srl	r13,r9,r4
    30a8:	1b18b03a 	or	r12,r3,r12
    30ac:	003fb506 	br	2f84 <__pack_d+0x1d0>
    30b0:	2806d07a 	srli	r3,r5,1
    30b4:	008007c4 	movi	r2,31
    30b8:	1105c83a 	sub	r2,r2,r4
    30bc:	1896d83a 	srl	r11,r3,r2
    30c0:	2914983a 	sll	r10,r5,r4
    30c4:	003fb506 	br	2f9c <__pack_d+0x1e8>

000030c8 <__unpack_d>:
    30c8:	20c00117 	ldw	r3,4(r4)
    30cc:	22400017 	ldw	r9,0(r4)
    30d0:	00800434 	movhi	r2,16
    30d4:	10bfffc4 	addi	r2,r2,-1
    30d8:	1808d53a 	srli	r4,r3,20
    30dc:	180cd7fa 	srli	r6,r3,31
    30e0:	1894703a 	and	r10,r3,r2
    30e4:	2201ffcc 	andi	r8,r4,2047
    30e8:	281b883a 	mov	r13,r5
    30ec:	4817883a 	mov	r11,r9
    30f0:	29800115 	stw	r6,4(r5)
    30f4:	5019883a 	mov	r12,r10
    30f8:	40001e1e 	bne	r8,zero,3174 <__unpack_d+0xac>
    30fc:	4a84b03a 	or	r2,r9,r10
    3100:	10001926 	beq	r2,zero,3168 <__unpack_d+0xa0>
    3104:	4804d63a 	srli	r2,r9,24
    3108:	500c923a 	slli	r6,r10,8
    310c:	013f0084 	movi	r4,-1022
    3110:	00c40034 	movhi	r3,4096
    3114:	18ffffc4 	addi	r3,r3,-1
    3118:	118cb03a 	or	r6,r2,r6
    311c:	008000c4 	movi	r2,3
    3120:	480a923a 	slli	r5,r9,8
    3124:	68800015 	stw	r2,0(r13)
    3128:	69000215 	stw	r4,8(r13)
    312c:	19800b36 	bltu	r3,r6,315c <__unpack_d+0x94>
    3130:	200f883a 	mov	r7,r4
    3134:	1811883a 	mov	r8,r3
    3138:	2945883a 	add	r2,r5,r5
    313c:	1149803a 	cmpltu	r4,r2,r5
    3140:	3187883a 	add	r3,r6,r6
    3144:	20c9883a 	add	r4,r4,r3
    3148:	100b883a 	mov	r5,r2
    314c:	200d883a 	mov	r6,r4
    3150:	39ffffc4 	addi	r7,r7,-1
    3154:	413ff82e 	bgeu	r8,r4,3138 <__unpack_d+0x70>
    3158:	69c00215 	stw	r7,8(r13)
    315c:	69800415 	stw	r6,16(r13)
    3160:	69400315 	stw	r5,12(r13)
    3164:	f800283a 	ret
    3168:	00800084 	movi	r2,2
    316c:	28800015 	stw	r2,0(r5)
    3170:	f800283a 	ret
    3174:	0081ffc4 	movi	r2,2047
    3178:	40800f26 	beq	r8,r2,31b8 <__unpack_d+0xf0>
    317c:	480cd63a 	srli	r6,r9,24
    3180:	5006923a 	slli	r3,r10,8
    3184:	4804923a 	slli	r2,r9,8
    3188:	0009883a 	mov	r4,zero
    318c:	30c6b03a 	or	r3,r6,r3
    3190:	01440034 	movhi	r5,4096
    3194:	110cb03a 	or	r6,r2,r4
    3198:	423f0044 	addi	r8,r8,-1023
    319c:	194eb03a 	or	r7,r3,r5
    31a0:	008000c4 	movi	r2,3
    31a4:	69c00415 	stw	r7,16(r13)
    31a8:	6a000215 	stw	r8,8(r13)
    31ac:	68800015 	stw	r2,0(r13)
    31b0:	69800315 	stw	r6,12(r13)
    31b4:	f800283a 	ret
    31b8:	4a84b03a 	or	r2,r9,r10
    31bc:	1000031e 	bne	r2,zero,31cc <__unpack_d+0x104>
    31c0:	00800104 	movi	r2,4
    31c4:	28800015 	stw	r2,0(r5)
    31c8:	f800283a 	ret
    31cc:	0009883a 	mov	r4,zero
    31d0:	01400234 	movhi	r5,8
    31d4:	4904703a 	and	r2,r9,r4
    31d8:	5146703a 	and	r3,r10,r5
    31dc:	10c4b03a 	or	r2,r2,r3
    31e0:	10000526 	beq	r2,zero,31f8 <__unpack_d+0x130>
    31e4:	00800044 	movi	r2,1
    31e8:	68800015 	stw	r2,0(r13)
    31ec:	6b000415 	stw	r12,16(r13)
    31f0:	6ac00315 	stw	r11,12(r13)
    31f4:	f800283a 	ret
    31f8:	68000015 	stw	zero,0(r13)
    31fc:	003ffb06 	br	31ec <__unpack_d+0x124>

00003200 <fprintf>:
    3200:	defffc04 	addi	sp,sp,-16
    3204:	dfc00115 	stw	ra,4(sp)
    3208:	d9800215 	stw	r6,8(sp)
    320c:	d9c00315 	stw	r7,12(sp)
    3210:	d8800204 	addi	r2,sp,8
    3214:	100d883a 	mov	r6,r2
    3218:	d8800015 	stw	r2,0(sp)
    321c:	0005b740 	call	5b74 <__vfprintf_internal>
    3220:	dfc00117 	ldw	ra,4(sp)
    3224:	dec00404 	addi	sp,sp,16
    3228:	f800283a 	ret

0000322c <_fprintf_r>:
    322c:	defffd04 	addi	sp,sp,-12
    3230:	2807883a 	mov	r3,r5
    3234:	dfc00115 	stw	ra,4(sp)
    3238:	d9c00215 	stw	r7,8(sp)
    323c:	d8800204 	addi	r2,sp,8
    3240:	300b883a 	mov	r5,r6
    3244:	1809883a 	mov	r4,r3
    3248:	100d883a 	mov	r6,r2
    324c:	d8800015 	stw	r2,0(sp)
    3250:	0005b740 	call	5b74 <__vfprintf_internal>
    3254:	dfc00117 	ldw	ra,4(sp)
    3258:	dec00304 	addi	sp,sp,12
    325c:	f800283a 	ret

00003260 <_fwrite_r>:
    3260:	defff604 	addi	sp,sp,-40
    3264:	dc400615 	stw	r17,24(sp)
    3268:	39a3383a 	mul	r17,r7,r6
    326c:	00800044 	movi	r2,1
    3270:	dcc00815 	stw	r19,32(sp)
    3274:	dc800715 	stw	r18,28(sp)
    3278:	dc000515 	stw	r16,20(sp)
    327c:	dfc00915 	stw	ra,36(sp)
    3280:	3825883a 	mov	r18,r7
    3284:	3027883a 	mov	r19,r6
    3288:	2021883a 	mov	r16,r4
    328c:	d9400015 	stw	r5,0(sp)
    3290:	d8800315 	stw	r2,12(sp)
    3294:	dc400115 	stw	r17,4(sp)
    3298:	dc400415 	stw	r17,16(sp)
    329c:	dec00215 	stw	sp,8(sp)
    32a0:	20000226 	beq	r4,zero,32ac <_fwrite_r+0x4c>
    32a4:	20800e17 	ldw	r2,56(r4)
    32a8:	10001226 	beq	r2,zero,32f4 <_fwrite_r+0x94>
    32ac:	d9400a17 	ldw	r5,40(sp)
    32b0:	8009883a 	mov	r4,r16
    32b4:	d9800204 	addi	r6,sp,8
    32b8:	0007f1c0 	call	7f1c <__sfvwrite_r>
    32bc:	980b883a 	mov	r5,r19
    32c0:	10000426 	beq	r2,zero,32d4 <_fwrite_r+0x74>
    32c4:	d9000417 	ldw	r4,16(sp)
    32c8:	8909c83a 	sub	r4,r17,r4
    32cc:	0002c8c0 	call	2c8c <__udivsi3>
    32d0:	1025883a 	mov	r18,r2
    32d4:	9005883a 	mov	r2,r18
    32d8:	dfc00917 	ldw	ra,36(sp)
    32dc:	dcc00817 	ldw	r19,32(sp)
    32e0:	dc800717 	ldw	r18,28(sp)
    32e4:	dc400617 	ldw	r17,24(sp)
    32e8:	dc000517 	ldw	r16,20(sp)
    32ec:	dec00a04 	addi	sp,sp,40
    32f0:	f800283a 	ret
    32f4:	00077380 	call	7738 <__sinit>
    32f8:	003fec06 	br	32ac <_fwrite_r+0x4c>

000032fc <fwrite>:
    32fc:	00800174 	movhi	r2,5
    3300:	108ad004 	addi	r2,r2,11072
    3304:	2017883a 	mov	r11,r4
    3308:	11000017 	ldw	r4,0(r2)
    330c:	defffe04 	addi	sp,sp,-8
    3310:	3013883a 	mov	r9,r6
    3314:	2805883a 	mov	r2,r5
    3318:	d9c00015 	stw	r7,0(sp)
    331c:	580b883a 	mov	r5,r11
    3320:	100d883a 	mov	r6,r2
    3324:	480f883a 	mov	r7,r9
    3328:	dfc00115 	stw	ra,4(sp)
    332c:	00032600 	call	3260 <_fwrite_r>
    3330:	dfc00117 	ldw	ra,4(sp)
    3334:	dec00204 	addi	sp,sp,8
    3338:	f800283a 	ret

0000333c <memset>:
    333c:	008000c4 	movi	r2,3
    3340:	29403fcc 	andi	r5,r5,255
    3344:	2007883a 	mov	r3,r4
    3348:	1180022e 	bgeu	r2,r6,3354 <memset+0x18>
    334c:	2084703a 	and	r2,r4,r2
    3350:	10000826 	beq	r2,zero,3374 <memset+0x38>
    3354:	30000526 	beq	r6,zero,336c <memset+0x30>
    3358:	2805883a 	mov	r2,r5
    335c:	30cd883a 	add	r6,r6,r3
    3360:	18800005 	stb	r2,0(r3)
    3364:	18c00044 	addi	r3,r3,1
    3368:	19bffd1e 	bne	r3,r6,3360 <memset+0x24>
    336c:	2005883a 	mov	r2,r4
    3370:	f800283a 	ret
    3374:	2804923a 	slli	r2,r5,8
    3378:	020003c4 	movi	r8,15
    337c:	200f883a 	mov	r7,r4
    3380:	2884b03a 	or	r2,r5,r2
    3384:	1006943a 	slli	r3,r2,16
    3388:	10c6b03a 	or	r3,r2,r3
    338c:	41800a2e 	bgeu	r8,r6,33b8 <memset+0x7c>
    3390:	4005883a 	mov	r2,r8
    3394:	31bffc04 	addi	r6,r6,-16
    3398:	38c00015 	stw	r3,0(r7)
    339c:	38c00115 	stw	r3,4(r7)
    33a0:	38c00215 	stw	r3,8(r7)
    33a4:	38c00315 	stw	r3,12(r7)
    33a8:	39c00404 	addi	r7,r7,16
    33ac:	11bff936 	bltu	r2,r6,3394 <memset+0x58>
    33b0:	008000c4 	movi	r2,3
    33b4:	1180052e 	bgeu	r2,r6,33cc <memset+0x90>
    33b8:	31bfff04 	addi	r6,r6,-4
    33bc:	008000c4 	movi	r2,3
    33c0:	38c00015 	stw	r3,0(r7)
    33c4:	39c00104 	addi	r7,r7,4
    33c8:	11bffb36 	bltu	r2,r6,33b8 <memset+0x7c>
    33cc:	3807883a 	mov	r3,r7
    33d0:	003fe006 	br	3354 <memset+0x18>

000033d4 <_perror_r>:
    33d4:	defffe04 	addi	sp,sp,-8
    33d8:	dc000015 	stw	r16,0(sp)
    33dc:	dfc00115 	stw	ra,4(sp)
    33e0:	2021883a 	mov	r16,r4
    33e4:	28000326 	beq	r5,zero,33f4 <_perror_r+0x20>
    33e8:	28800007 	ldb	r2,0(r5)
    33ec:	2809883a 	mov	r4,r5
    33f0:	10000c1e 	bne	r2,zero,3424 <_perror_r+0x50>
    33f4:	81000017 	ldw	r4,0(r16)
    33f8:	00035800 	call	3580 <strerror>
    33fc:	1009883a 	mov	r4,r2
    3400:	10000226 	beq	r2,zero,340c <_perror_r+0x38>
    3404:	81400317 	ldw	r5,12(r16)
    3408:	0007ac00 	call	7ac0 <fputs>
    340c:	81400317 	ldw	r5,12(r16)
    3410:	01000284 	movi	r4,10
    3414:	dfc00117 	ldw	ra,4(sp)
    3418:	dc000017 	ldw	r16,0(sp)
    341c:	dec00204 	addi	sp,sp,8
    3420:	00079901 	jmpi	7990 <fputc>
    3424:	81400317 	ldw	r5,12(r16)
    3428:	0007ac00 	call	7ac0 <fputs>
    342c:	81400317 	ldw	r5,12(r16)
    3430:	01000174 	movhi	r4,5
    3434:	212f4504 	addi	r4,r4,-17132
    3438:	0007ac00 	call	7ac0 <fputs>
    343c:	003fed06 	br	33f4 <_perror_r+0x20>

00003440 <perror>:
    3440:	00800174 	movhi	r2,5
    3444:	108ad004 	addi	r2,r2,11072
    3448:	200b883a 	mov	r5,r4
    344c:	11000017 	ldw	r4,0(r2)
    3450:	00033d41 	jmpi	33d4 <_perror_r>

00003454 <printf>:
    3454:	defffb04 	addi	sp,sp,-20
    3458:	dfc00115 	stw	ra,4(sp)
    345c:	d9400215 	stw	r5,8(sp)
    3460:	d9800315 	stw	r6,12(sp)
    3464:	d9c00415 	stw	r7,16(sp)
    3468:	00800174 	movhi	r2,5
    346c:	108ad004 	addi	r2,r2,11072
    3470:	10c00017 	ldw	r3,0(r2)
    3474:	200b883a 	mov	r5,r4
    3478:	d8800204 	addi	r2,sp,8
    347c:	19000217 	ldw	r4,8(r3)
    3480:	100d883a 	mov	r6,r2
    3484:	d8800015 	stw	r2,0(sp)
    3488:	0005b740 	call	5b74 <__vfprintf_internal>
    348c:	dfc00117 	ldw	ra,4(sp)
    3490:	dec00504 	addi	sp,sp,20
    3494:	f800283a 	ret

00003498 <_printf_r>:
    3498:	defffc04 	addi	sp,sp,-16
    349c:	dfc00115 	stw	ra,4(sp)
    34a0:	d9800215 	stw	r6,8(sp)
    34a4:	d9c00315 	stw	r7,12(sp)
    34a8:	280d883a 	mov	r6,r5
    34ac:	21400217 	ldw	r5,8(r4)
    34b0:	d8c00204 	addi	r3,sp,8
    34b4:	180f883a 	mov	r7,r3
    34b8:	d8c00015 	stw	r3,0(sp)
    34bc:	0003cc80 	call	3cc8 <___vfprintf_internal_r>
    34c0:	dfc00117 	ldw	ra,4(sp)
    34c4:	dec00404 	addi	sp,sp,16
    34c8:	f800283a 	ret

000034cc <_puts_r>:
    34cc:	defff604 	addi	sp,sp,-40
    34d0:	dc400715 	stw	r17,28(sp)
    34d4:	2023883a 	mov	r17,r4
    34d8:	2809883a 	mov	r4,r5
    34dc:	dfc00915 	stw	ra,36(sp)
    34e0:	dcc00815 	stw	r19,32(sp)
    34e4:	2827883a 	mov	r19,r5
    34e8:	0003bf40 	call	3bf4 <strlen>
    34ec:	89400217 	ldw	r5,8(r17)
    34f0:	00c00174 	movhi	r3,5
    34f4:	18ef4604 	addi	r3,r3,-17128
    34f8:	01c00044 	movi	r7,1
    34fc:	12000044 	addi	r8,r2,1
    3500:	d8c00515 	stw	r3,20(sp)
    3504:	d9c00615 	stw	r7,24(sp)
    3508:	d8c00304 	addi	r3,sp,12
    350c:	01c00084 	movi	r7,2
    3510:	8809883a 	mov	r4,r17
    3514:	d80d883a 	mov	r6,sp
    3518:	d8c00015 	stw	r3,0(sp)
    351c:	dcc00315 	stw	r19,12(sp)
    3520:	da000215 	stw	r8,8(sp)
    3524:	d9c00115 	stw	r7,4(sp)
    3528:	d8800415 	stw	r2,16(sp)
    352c:	0007f1c0 	call	7f1c <__sfvwrite_r>
    3530:	00ffffc4 	movi	r3,-1
    3534:	10000626 	beq	r2,zero,3550 <_puts_r+0x84>
    3538:	1805883a 	mov	r2,r3
    353c:	dfc00917 	ldw	ra,36(sp)
    3540:	dcc00817 	ldw	r19,32(sp)
    3544:	dc400717 	ldw	r17,28(sp)
    3548:	dec00a04 	addi	sp,sp,40
    354c:	f800283a 	ret
    3550:	00c00284 	movi	r3,10
    3554:	1805883a 	mov	r2,r3
    3558:	dfc00917 	ldw	ra,36(sp)
    355c:	dcc00817 	ldw	r19,32(sp)
    3560:	dc400717 	ldw	r17,28(sp)
    3564:	dec00a04 	addi	sp,sp,40
    3568:	f800283a 	ret

0000356c <puts>:
    356c:	00800174 	movhi	r2,5
    3570:	108ad004 	addi	r2,r2,11072
    3574:	200b883a 	mov	r5,r4
    3578:	11000017 	ldw	r4,0(r2)
    357c:	00034cc1 	jmpi	34cc <_puts_r>

00003580 <strerror>:
    3580:	deffff04 	addi	sp,sp,-4
    3584:	00802184 	movi	r2,134
    3588:	dfc00015 	stw	ra,0(sp)
    358c:	200b883a 	mov	r5,r4
    3590:	11008e36 	bltu	r2,r4,37cc <strerror+0x24c>
    3594:	2105883a 	add	r2,r4,r4
    3598:	1085883a 	add	r2,r2,r2
    359c:	00c00034 	movhi	r3,0
    35a0:	18cd6c04 	addi	r3,r3,13744
    35a4:	10c5883a 	add	r2,r2,r3
    35a8:	11000017 	ldw	r4,0(r2)
    35ac:	2000683a 	jmp	r4
    35b0:	000037cc 	andi	zero,zero,223
    35b4:	00003804 	movi	zero,224
    35b8:	00003810 	cmplti	zero,zero,224
    35bc:	0000381c 	xori	zero,zero,224
    35c0:	00003828 	cmpgeui	zero,zero,224
    35c4:	00003834 	movhi	zero,224
    35c8:	00003840 	call	384 <ADCToUDPM+0x6c>
    35cc:	0000384c 	andi	zero,zero,225
    35d0:	00003858 	cmpnei	zero,zero,225
    35d4:	00003864 	muli	zero,zero,225
    35d8:	00003870 	cmpltui	zero,zero,225
    35dc:	0000387c 	xorhi	zero,zero,225
    35e0:	00003888 	cmpgei	zero,zero,226
    35e4:	00003894 	movui	zero,226
    35e8:	000038a0 	cmpeqi	zero,zero,226
    35ec:	000038ac 	andhi	zero,zero,226
    35f0:	000038b8 	rdprs	zero,zero,226
    35f4:	000038c4 	movi	zero,227
    35f8:	000038d0 	cmplti	zero,zero,227
    35fc:	000038dc 	xori	zero,zero,227
    3600:	000038e8 	cmpgeui	zero,zero,227
    3604:	000038f4 	movhi	zero,227
    3608:	00003900 	call	390 <ADCToUDPM+0x78>
    360c:	0000390c 	andi	zero,zero,228
    3610:	00003918 	cmpnei	zero,zero,228
    3614:	00003924 	muli	zero,zero,228
    3618:	00003930 	cmpltui	zero,zero,228
    361c:	0000393c 	xorhi	zero,zero,228
    3620:	00003948 	cmpgei	zero,zero,229
    3624:	00003954 	movui	zero,229
    3628:	00003960 	cmpeqi	zero,zero,229
    362c:	0000396c 	andhi	zero,zero,229
    3630:	00003978 	rdprs	zero,zero,229
    3634:	00003984 	movi	zero,230
    3638:	00003990 	cmplti	zero,zero,230
    363c:	0000399c 	xori	zero,zero,230
    3640:	000039a8 	cmpgeui	zero,zero,230
    3644:	000037cc 	andi	zero,zero,223
    3648:	000037cc 	andi	zero,zero,223
    364c:	000037cc 	andi	zero,zero,223
    3650:	000037cc 	andi	zero,zero,223
    3654:	000037cc 	andi	zero,zero,223
    3658:	000037cc 	andi	zero,zero,223
    365c:	000037cc 	andi	zero,zero,223
    3660:	000037cc 	andi	zero,zero,223
    3664:	000039b4 	movhi	zero,230
    3668:	000039c0 	call	39c <ADCToUDPM+0x84>
    366c:	000037cc 	andi	zero,zero,223
    3670:	000037cc 	andi	zero,zero,223
    3674:	000037cc 	andi	zero,zero,223
    3678:	000037cc 	andi	zero,zero,223
    367c:	000037cc 	andi	zero,zero,223
    3680:	000037cc 	andi	zero,zero,223
    3684:	000037cc 	andi	zero,zero,223
    3688:	000037cc 	andi	zero,zero,223
    368c:	000037cc 	andi	zero,zero,223
    3690:	000037cc 	andi	zero,zero,223
    3694:	000037cc 	andi	zero,zero,223
    3698:	000037cc 	andi	zero,zero,223
    369c:	000037cc 	andi	zero,zero,223
    36a0:	000039cc 	andi	zero,zero,231
    36a4:	000037cc 	andi	zero,zero,223
    36a8:	000039d8 	cmpnei	zero,zero,231
    36ac:	000039e4 	muli	zero,zero,231
    36b0:	000039f0 	cmpltui	zero,zero,231
    36b4:	000039fc 	xorhi	zero,zero,231
    36b8:	00003a08 	cmpgei	zero,zero,232
    36bc:	00003a14 	movui	zero,232
    36c0:	00003a20 	cmpeqi	zero,zero,232
    36c4:	00003a2c 	andhi	zero,zero,232
    36c8:	00003a38 	rdprs	zero,zero,232
    36cc:	00003a44 	movi	zero,233
    36d0:	000037cc 	andi	zero,zero,223
    36d4:	000037cc 	andi	zero,zero,223
    36d8:	00003a50 	cmplti	zero,zero,233
    36dc:	000037cc 	andi	zero,zero,223
    36e0:	000037cc 	andi	zero,zero,223
    36e4:	00003a5c 	xori	zero,zero,233
    36e8:	000037cc 	andi	zero,zero,223
    36ec:	000037cc 	andi	zero,zero,223
    36f0:	000037cc 	andi	zero,zero,223
    36f4:	000037cc 	andi	zero,zero,223
    36f8:	000037cc 	andi	zero,zero,223
    36fc:	00003a68 	cmpgeui	zero,zero,233
    3700:	00003a74 	movhi	zero,233
    3704:	00003a80 	call	3a8 <ADCToUDPM+0x90>
    3708:	00003a8c 	andi	zero,zero,234
    370c:	00003a98 	cmpnei	zero,zero,234
    3710:	00003aa4 	muli	zero,zero,234
    3714:	00003ab0 	cmpltui	zero,zero,234
    3718:	00003abc 	xorhi	zero,zero,234
    371c:	00003ac8 	cmpgei	zero,zero,235
    3720:	00003ad4 	movui	zero,235
    3724:	000037cc 	andi	zero,zero,223
    3728:	000037cc 	andi	zero,zero,223
    372c:	00003ae0 	cmpeqi	zero,zero,235
    3730:	000037cc 	andi	zero,zero,223
    3734:	000037cc 	andi	zero,zero,223
    3738:	000037cc 	andi	zero,zero,223
    373c:	000037cc 	andi	zero,zero,223
    3740:	000037cc 	andi	zero,zero,223
    3744:	000037cc 	andi	zero,zero,223
    3748:	000037cc 	andi	zero,zero,223
    374c:	000037cc 	andi	zero,zero,223
    3750:	000037cc 	andi	zero,zero,223
    3754:	00003aec 	andhi	zero,zero,235
    3758:	00003af8 	rdprs	zero,zero,235
    375c:	00003b04 	movi	zero,236
    3760:	00003b10 	cmplti	zero,zero,236
    3764:	00003b1c 	xori	zero,zero,236
    3768:	00003b28 	cmpgeui	zero,zero,236
    376c:	00003b34 	movhi	zero,236
    3770:	00003b40 	call	3b4 <ADCToUDPM+0x9c>
    3774:	00003b4c 	andi	zero,zero,237
    3778:	00003b58 	cmpnei	zero,zero,237
    377c:	00003b64 	muli	zero,zero,237
    3780:	00003b70 	cmpltui	zero,zero,237
    3784:	00003b7c 	xorhi	zero,zero,237
    3788:	00003b88 	cmpgei	zero,zero,238
    378c:	00003b94 	movui	zero,238
    3790:	00003ba0 	cmpeqi	zero,zero,238
    3794:	00003bac 	andhi	zero,zero,238
    3798:	00003bb8 	rdprs	zero,zero,238
    379c:	00003bc4 	movi	zero,239
    37a0:	00003bd0 	cmplti	zero,zero,239
    37a4:	000037cc 	andi	zero,zero,223
    37a8:	000037cc 	andi	zero,zero,223
    37ac:	00003bdc 	xori	zero,zero,239
    37b0:	00003be8 	cmpgeui	zero,zero,239
    37b4:	000037cc 	andi	zero,zero,223
    37b8:	000037cc 	andi	zero,zero,223
    37bc:	000037cc 	andi	zero,zero,223
    37c0:	000037cc 	andi	zero,zero,223
    37c4:	000037cc 	andi	zero,zero,223
    37c8:	000037f8 	rdprs	zero,zero,223
    37cc:	2809883a 	mov	r4,r5
    37d0:	0003c680 	call	3c68 <_user_strerror>
    37d4:	10000326 	beq	r2,zero,37e4 <strerror+0x264>
    37d8:	dfc00017 	ldw	ra,0(sp)
    37dc:	dec00104 	addi	sp,sp,4
    37e0:	f800283a 	ret
    37e4:	00800174 	movhi	r2,5
    37e8:	10b13f04 	addi	r2,r2,-15108
    37ec:	dfc00017 	ldw	ra,0(sp)
    37f0:	dec00104 	addi	sp,sp,4
    37f4:	f800283a 	ret
    37f8:	00800174 	movhi	r2,5
    37fc:	10b00204 	addi	r2,r2,-16376
    3800:	003ff506 	br	37d8 <strerror+0x258>
    3804:	00800174 	movhi	r2,5
    3808:	10af5204 	addi	r2,r2,-17080
    380c:	003ff206 	br	37d8 <strerror+0x258>
    3810:	00800174 	movhi	r2,5
    3814:	10af5504 	addi	r2,r2,-17068
    3818:	003fef06 	br	37d8 <strerror+0x258>
    381c:	00800174 	movhi	r2,5
    3820:	10af5c04 	addi	r2,r2,-17040
    3824:	003fec06 	br	37d8 <strerror+0x258>
    3828:	00800174 	movhi	r2,5
    382c:	10af6004 	addi	r2,r2,-17024
    3830:	003fe906 	br	37d8 <strerror+0x258>
    3834:	00800174 	movhi	r2,5
    3838:	10af6604 	addi	r2,r2,-17000
    383c:	003fe606 	br	37d8 <strerror+0x258>
    3840:	00800174 	movhi	r2,5
    3844:	10af6904 	addi	r2,r2,-16988
    3848:	003fe306 	br	37d8 <strerror+0x258>
    384c:	00800174 	movhi	r2,5
    3850:	10af7004 	addi	r2,r2,-16960
    3854:	003fe006 	br	37d8 <strerror+0x258>
    3858:	00800174 	movhi	r2,5
    385c:	10af7504 	addi	r2,r2,-16940
    3860:	003fdd06 	br	37d8 <strerror+0x258>
    3864:	00800174 	movhi	r2,5
    3868:	10af8104 	addi	r2,r2,-16892
    386c:	003fda06 	br	37d8 <strerror+0x258>
    3870:	00800174 	movhi	r2,5
    3874:	10af8504 	addi	r2,r2,-16876
    3878:	003fd706 	br	37d8 <strerror+0x258>
    387c:	00800174 	movhi	r2,5
    3880:	10af9004 	addi	r2,r2,-16832
    3884:	003fd406 	br	37d8 <strerror+0x258>
    3888:	00800174 	movhi	r2,5
    388c:	10af9504 	addi	r2,r2,-16812
    3890:	003fd106 	br	37d8 <strerror+0x258>
    3894:	00800174 	movhi	r2,5
    3898:	10af9a04 	addi	r2,r2,-16792
    389c:	003fce06 	br	37d8 <strerror+0x258>
    38a0:	00800174 	movhi	r2,5
    38a4:	10af9f04 	addi	r2,r2,-16772
    38a8:	003fcb06 	br	37d8 <strerror+0x258>
    38ac:	00800174 	movhi	r2,5
    38b0:	10afa204 	addi	r2,r2,-16760
    38b4:	003fc806 	br	37d8 <strerror+0x258>
    38b8:	00800174 	movhi	r2,5
    38bc:	10afa804 	addi	r2,r2,-16736
    38c0:	003fc506 	br	37d8 <strerror+0x258>
    38c4:	00800174 	movhi	r2,5
    38c8:	10afae04 	addi	r2,r2,-16712
    38cc:	003fc206 	br	37d8 <strerror+0x258>
    38d0:	00800174 	movhi	r2,5
    38d4:	10afb104 	addi	r2,r2,-16700
    38d8:	003fbf06 	br	37d8 <strerror+0x258>
    38dc:	00800174 	movhi	r2,5
    38e0:	10afb604 	addi	r2,r2,-16680
    38e4:	003fbc06 	br	37d8 <strerror+0x258>
    38e8:	00800174 	movhi	r2,5
    38ec:	10afba04 	addi	r2,r2,-16664
    38f0:	003fb906 	br	37d8 <strerror+0x258>
    38f4:	00800174 	movhi	r2,5
    38f8:	10afca04 	addi	r2,r2,-16600
    38fc:	003fb606 	br	37d8 <strerror+0x258>
    3900:	00800174 	movhi	r2,5
    3904:	10afce04 	addi	r2,r2,-16584
    3908:	003fb306 	br	37d8 <strerror+0x258>
    390c:	00800174 	movhi	r2,5
    3910:	10afdc04 	addi	r2,r2,-16528
    3914:	003fb006 	br	37d8 <strerror+0x258>
    3918:	00800174 	movhi	r2,5
    391c:	10afe404 	addi	r2,r2,-16496
    3920:	003fad06 	br	37d8 <strerror+0x258>
    3924:	00800174 	movhi	r2,5
    3928:	10afe904 	addi	r2,r2,-16476
    392c:	003faa06 	br	37d8 <strerror+0x258>
    3930:	00800174 	movhi	r2,5
    3934:	10afef04 	addi	r2,r2,-16452
    3938:	003fa706 	br	37d8 <strerror+0x258>
    393c:	00800174 	movhi	r2,5
    3940:	10aff304 	addi	r2,r2,-16436
    3944:	003fa406 	br	37d8 <strerror+0x258>
    3948:	00800174 	movhi	r2,5
    394c:	10affc04 	addi	r2,r2,-16400
    3950:	003fa106 	br	37d8 <strerror+0x258>
    3954:	00800174 	movhi	r2,5
    3958:	10b00604 	addi	r2,r2,-16360
    395c:	003f9e06 	br	37d8 <strerror+0x258>
    3960:	00800174 	movhi	r2,5
    3964:	10b00a04 	addi	r2,r2,-16344
    3968:	003f9b06 	br	37d8 <strerror+0x258>
    396c:	00800174 	movhi	r2,5
    3970:	10b01004 	addi	r2,r2,-16320
    3974:	003f9806 	br	37d8 <strerror+0x258>
    3978:	00800174 	movhi	r2,5
    397c:	10b01404 	addi	r2,r2,-16304
    3980:	003f9506 	br	37d8 <strerror+0x258>
    3984:	00800174 	movhi	r2,5
    3988:	10b01704 	addi	r2,r2,-16292
    398c:	003f9206 	br	37d8 <strerror+0x258>
    3990:	00800174 	movhi	r2,5
    3994:	10b01b04 	addi	r2,r2,-16276
    3998:	003f8f06 	br	37d8 <strerror+0x258>
    399c:	00800174 	movhi	r2,5
    39a0:	10b02004 	addi	r2,r2,-16256
    39a4:	003f8c06 	br	37d8 <strerror+0x258>
    39a8:	00800174 	movhi	r2,5
    39ac:	10b02704 	addi	r2,r2,-16228
    39b0:	003f8906 	br	37d8 <strerror+0x258>
    39b4:	00800174 	movhi	r2,5
    39b8:	10b02c04 	addi	r2,r2,-16208
    39bc:	003f8606 	br	37d8 <strerror+0x258>
    39c0:	00800174 	movhi	r2,5
    39c4:	10b03504 	addi	r2,r2,-16172
    39c8:	003f8306 	br	37d8 <strerror+0x258>
    39cc:	00800174 	movhi	r2,5
    39d0:	10b03704 	addi	r2,r2,-16164
    39d4:	003f8006 	br	37d8 <strerror+0x258>
    39d8:	00800174 	movhi	r2,5
    39dc:	10b03b04 	addi	r2,r2,-16148
    39e0:	003f7d06 	br	37d8 <strerror+0x258>
    39e4:	00800174 	movhi	r2,5
    39e8:	10b04104 	addi	r2,r2,-16124
    39ec:	003f7a06 	br	37d8 <strerror+0x258>
    39f0:	00800174 	movhi	r2,5
    39f4:	10b04604 	addi	r2,r2,-16104
    39f8:	003f7706 	br	37d8 <strerror+0x258>
    39fc:	00800174 	movhi	r2,5
    3a00:	10b04e04 	addi	r2,r2,-16072
    3a04:	003f7406 	br	37d8 <strerror+0x258>
    3a08:	00800174 	movhi	r2,5
    3a0c:	10b05104 	addi	r2,r2,-16060
    3a10:	003f7106 	br	37d8 <strerror+0x258>
    3a14:	00800174 	movhi	r2,5
    3a18:	10b05604 	addi	r2,r2,-16040
    3a1c:	003f6e06 	br	37d8 <strerror+0x258>
    3a20:	00800174 	movhi	r2,5
    3a24:	10b05c04 	addi	r2,r2,-16016
    3a28:	003f6b06 	br	37d8 <strerror+0x258>
    3a2c:	00800174 	movhi	r2,5
    3a30:	10b06004 	addi	r2,r2,-16000
    3a34:	003f6806 	br	37d8 <strerror+0x258>
    3a38:	00800174 	movhi	r2,5
    3a3c:	10b06404 	addi	r2,r2,-15984
    3a40:	003f6506 	br	37d8 <strerror+0x258>
    3a44:	00800174 	movhi	r2,5
    3a48:	10b06904 	addi	r2,r2,-15964
    3a4c:	003f6206 	br	37d8 <strerror+0x258>
    3a50:	00800174 	movhi	r2,5
    3a54:	10b07204 	addi	r2,r2,-15928
    3a58:	003f5f06 	br	37d8 <strerror+0x258>
    3a5c:	00800174 	movhi	r2,5
    3a60:	10b07704 	addi	r2,r2,-15908
    3a64:	003f5c06 	br	37d8 <strerror+0x258>
    3a68:	00800174 	movhi	r2,5
    3a6c:	10b07a04 	addi	r2,r2,-15896
    3a70:	003f5906 	br	37d8 <strerror+0x258>
    3a74:	00800174 	movhi	r2,5
    3a78:	10b08404 	addi	r2,r2,-15856
    3a7c:	003f5606 	br	37d8 <strerror+0x258>
    3a80:	00800174 	movhi	r2,5
    3a84:	10b08e04 	addi	r2,r2,-15816
